(lp0
Vshirt
p1
aVwould be
p2
aVneed to
p3
aVbased
p4
aVworking
p5
aVedition
p6
aVspace
p7
aVthe game
p8
aVstarted
p9
aVshow
p10
aVthe world
p11
aVsuch
p12
aVwill
p13
aVbook
p14
aVshort
p15
aVmedia
p16
aVsuch as
p17
aVanother
p18
aVreal
p19
aVread
p20
aVme
p21
aVmy
p22
aVover
p23
aVcheck
p24
aVpast
p25
aVpledge
p26
aVmuch
p27
aV100
p28
aVthrough
p29
aVthese
p30
aVcopy
p31
aVmore
p32
aVcompany
p33
aVwill have
p34
aVget
p35
aValready
p36
aVher
p37
aVplay
p38
aVplan
p39
aVcom
p40
aVbetter
p41
aVwe will
p42
aVevery
p43
aValbum
p44
aVinto the
p45
aVwill be
p46
aVidea
p47
aVworks
p48
aVlook
p49
aVthat we
p50
aVenough
p51
aVover the
p52
aVwe ve
p53
aVlooking
p54
aVwhen
p55
aVthere
p56
aVcan be
p57
aVdon
p58
aVmost
p59
aVartist
p60
aVequipment
p61
aVbetween
p62
aVas well
p63
aVcolor
p64
aVcreative
p65
aVto see
p66
aVwould
p67
aVteam
p68
aVwith the
p69
aVknow
p70
aVlong
p71
aVfirst
p72
aVcreate
p73
aVhaving
p74
aVnumber
p75
aVlight
p76
aVcontent
p77
aVseveral
p78
aVthe story
p79
aVwater
p80
aVhe
p81
aVthose
p82
aVcan
p83
aVcurrently
p84
aVbe able to
p85
aVto get
p86
aVeverything
p87
aVits
p88
aVwww
p89
aVdigital
p90
aVavailable
p91
aVgetting
p92
aVbooks
p93
aVit was
p94
aVcreated
p95
aVdone
p96
aVthis
p97
aVthis is
p98
aVin this
p99
aVpage
p100
aVonce
p101
aVif you
p102
aVso
p103
aVbring
p104
aVmoney
p105
aVtime
p106
aVwhere
p107
aVbusiness
p108
aVyou have
p109
aVthe most
p110
aVhand
p111
aVwithin
p112
aVthey are
p113
aVand we
p114
aVthe film
p115
aVproduction
p116
aVshould
p117
aVthink
p118
aVdifferent
p119
aValso
p120
aVduring
p121
aVtwo
p122
aVyour
p123
aVfar
p124
aV000
p125
aVblack
p126
aVsimple
p127
aVthank you
p128
aVnever
p129
aVwell
p130
aVbuild
p131
aVhave been
p132
aVand
p133
aVany
p134
aVto be
p135
aVyour help
p136
aVbackers
p137
aVcharacter
p138
aVstretch
p139
aVable to
p140
aVfound
p141
aVthat will
p142
aVincludes
p143
aVwe are
p144
aVmake
p145
aVlet
p146
aVjust
p147
aVsee
p148
aVkickstarter
p149
aVlike to
p150
aV00 00 00
p151
aVnow
p152
aVall the
p153
aVbecause
p154
aVhave the
p155
aVthere are
p156
aVdirector
p157
aVve
p158
aVbeing
p159
aVthe same
p160
aVfinal
p161
aVhis
p162
aVhim
p163
aVof
p164
aVhowever
p165
aVwhat
p166
aVyour support
p167
aVcome
p168
aVtogether
p169
aV20
p170
aVstyle
p171
aVdesign
p172
aVwell as
p173
aVby the
p174
aVpart of
p175
aVway
p176
aVwas
p177
aVcards
p178
aVaround
p179
aVstudio
p180
aVlimited
p181
aVfeel
p182
aVwhile
p183
aVsmall
p184
aVof your
p185
aVrewards
p186
aVof the
p187
aVin
p188
aVyou will
p189
aVcampaign
p190
aV00 00
p191
aVno
p192
aVfilm
p193
aVamount
p194
aVfunds
p195
aVgoing to
p196
aVmay
p197
aVall
p198
aVwe have
p199
aVthank
p200
aVthat
p201
aVbelieve
p202
aVwe can
p203
aVall of
p204
aVyou want
p205
aVmusic
p206
aVthe best
p207
aVthat you
p208
aVit will
p209
aVbest
p210
aVpower
p211
aVamazing
p212
aVoriginal
p213
aVthree
p214
aVwho
p215
aVgood
p216
aVreward
p217
aVhigh
p218
aVthe first
p219
aVreceive
p220
aVthen
p221
aVthey
p222
aVallow
p223
aVhttp
p224
aVadditional
p225
aVcharacters
p226
aVus to
p227
aVfunding
p228
aVtechnology
p229
aVon the
p230
aVmany
p231
aVstories
p232
aVstart
p233
aVsize
p234
aVback
p235
aVwith
p236
aVbecome
p237
aVnew
p238
aVfull
p239
aVprocess
p240
aVwe ll
p241
aVfew
p242
aVother
p243
aVyou ll
p244
aVfood
p245
aVfrom
p246
aVtake
p247
aVput
p248
aV2014
p249
aVonly
p250
aVsocial
p251
aVdoes
p252
aVwork
p253
aVfind
p254
aVafter
p255
aVto have
p256
aVare
p257
aVstill
p258
aVincluding
p259
aVspecial
p260
aVpeople
p261
aVhere
p262
aVusing
p263
aVplayers
p264
aVhope
p265
aVboard
p266
aVwanted
p267
aVsound
p268
aVto help
p269
aVfun
p270
aVuse
p271
aVwhich
p272
aVvideo
p273
aVwant to
p274
aVcosts
p275
aVchange
p276
aVis
p277
aVit
p278
aVif
p279
aVopen
p280
aVwebsite
p281
aVyou
p282
aVcost
p283
aVto do
p284
aVeveryone
p285
aVabout
p286
aVone
p287
aVused
p288
aVsupport
p289
aVabout the
p290
aVrun
p291
aVeasy
p292
aVreach
p293
aVlevel
p294
aVbeen
p295
aVto
p296
aVright
p297
aVhard
p298
aVthere is
p299
aVschool
p300
aVversion
p301
aVthat the
p302
aVand the
p303
aVmore than
p304
aVfor your
p305
aVcould
p306
aVhelp us
p307
aVam
p308
aVan
p309
aVas
p310
aVat
p311
aV00
p312
aVraise
p313
aVlove
p314
aVde
p315
aVbig
p316
aVsince
p317
aVwere
p318
aVhave to
p319
aVeach
p320
aVgoing
p321
aVcomplete
p322
aVapp
p323
aVyoung
p324
aVpart
p325
aVshe
p326
aVready
p327
aVfeatures
p328
aVprint
p329
aVwithout
p330
aVll
p331
aVcreating
p332
aVthanks
p333
aVhave
p334
aVup to
p335
aVearly
p336
aVplease
p337
aVworld
p338
aVour
p339
aVout
p340
aVto our
p341
aVhas been
p342
aVthan
p343
aVbeautiful
p344
aVwe
p345
aVhow
p346
aVthings
p347
aVorder
p348
aVof my
p349
aVneed
p350
aVwe need
p351
aVday
p352
aVboth
p353
aVeven
p354
aVever
p355
aVnext
p356
aVoffer
p357
aVdo
p358
aV30
p359
aVinto
p360
aVstory
p361
aVsomething
p362
aVto make
p363
aVable
p364
aVfacebook
p365
aVfor the
p366
aVtop
p367
aVtoo
p368
aVin the
p369
aVtheir
p370
aVone of the
p371
aVcamera
p372
aVcard
p373
aVcustom
p374
aVlike
p375
aValways
p376
aVthat is
p377
aVto the
p378
aVcity
p379
aVyear
p380
aVsome of
p381
aVyou can
p382
aVgive
p383
aVon
p384
aVor
p385
aVif we
p386
aVshipping
p387
aVhome
p388
aVyou are
p389
aVunique
p390
aVas well as
p391
aVyou re
p392
aVbe able
p393
aVgoals
p394
aVthem
p395
aVproducts
p396
aVdesigned
p397
aVexperience
p398
aVdevelopment
p399
aVkeep
p400
aVfuture
p401
aVgames
p402
aVmaking
p403
aVown
p404
aVseries
p405
aVprojects
p406
aVprovide
p407
aVwith your
p408
aVthe
p409
aVto create
p410
aVis an
p411
aVsome
p412
aVquality
p413
aVabove
p414
aVhad
p415
aVhas
p416
aVcover
p417
aV50
p418
aVfrom the
p419
aVchildren
p420
aVfeature
p421
aVfamily
p422
aVfriends
p423
aVof our
p424
aVhelp
p425
aVto use
p426
aVbefore
p427
aVfor you
p428
aVwill also
p429
aVold
p430
aVthe project
p431
aVwe want
p432
aVwe re
p433
aVout of
p434
aVfor
p435
aVre
p436
aVlarge
p437
aVplace
p438
aVothers
p439
aVsame
p440
aVat the
p441
aVbut
p442
aVas the
p443
aVit is
p444
aVinformation
p445
aVlot
p446
aVset
p447
aVartists
p448
aVshare
p449
aVinclude
p450
aVproject
p451
aVyou to
p452
aVname
p453
aVgoal
p454
aVreally
p455
aVthe book
p456
aVone of
p457
aVmade
p458
aVlast
p459
aVis the
p460
aVoff
p461
aVwhy
p462
aVgreat
p463
aVsure
p464
aVthis project
p465
aVdream
p466
aVof this
p467
aVfree
p468
aVlive
p469
aVnot
p470
aVin our
p471
aVyears
p472
aVadd
p473
aVwe want to
p474
aVcommunity
p475
aVlittle
p476
aVis to
p477
aVplayer
p478
aValong
p479
aVpossible
p480
aVgo
p481
aVdesigns
p482
aVlife
p483
aVend
p484
aVup
p485
aVus
p486
aVline
p487
aVproduct
p488
aVproduce
p489
aVto your
p490
aVart
p491
aVgame
p492
aVimportant
p493
aVchoose
p494
aVwant
p495
aVvery
p496
aVdown
p497
aVbe
p498
aVby
p499
aVlocal
p500
aVsystem
p501
aV10
p502
aV15
p503
aVbelow
p504
a.