(lp0
Vthem into
p1
aVinfluence
p2
aVfrom this
p3
aVdo so
p4
aVmoney will
p5
aVaugust
p6
aVfew of
p7
aVyou go
p8
aVandy
p9
aVfigure
p10
aVcan be found
p11
aVshirt
p12
aVplenty of
p13
aV1500
p14
aVmenu
p15
aVcanvas
p16
aVgone
p17
aVdue to
p18
aVin love
p19
aVtrees
p20
aVwould be
p21
aVif you like
p22
aVcenter
p23
aVrate
p24
aVresult of
p25
aVnot be
p26
aVneed to
p27
aVit so
p28
aVbut not
p29
aVwill not be
p30
aVdepending on
p31
aVtypes of
p32
aVbased
p33
aVnights
p34
aVmany of the
p35
aVbuild the
p36
aVliterally
p37
aVtried
p38
aVabout my
p39
aVgirl
p40
aVchicago
p41
aVhelp me
p42
aVfor his
p43
aVphone
p44
aVticket
p45
aVpassed
p46
aVwomen
p47
aVat my
p48
aVworking
p49
aVit can
p50
aVfew months
p51
aVthose who
p52
aVteams
p53
aVpowerful
p54
aVbroad
p55
aVthe business
p56
aVthe time to
p57
aVfilled
p58
aVimagination
p59
aVshape
p60
aVwhat is the
p61
aVmore people
p62
aVto view
p63
aVthe whole
p64
aVusing the
p65
aVis being
p66
aVknown as
p67
aVwill only
p68
aVonce you
p69
aVand white
p70
aVinside the
p71
aVthe start
p72
aVsomeone
p73
aVus on facebook
p74
aVand so
p75
aVout of the
p76
aVacrylic
p77
aVus with
p78
aVobjects
p79
aVearly bird
p80
aVwilling to
p81
aVbrian
p82
aVjuly
p83
aVbeers
p84
aVyou get
p85
aVyou ve
p86
aVfinishing
p87
aVneighborhood
p88
aVoften
p89
aVourselves
p90
aVmaking this
p91
aVwill have the
p92
aVeffects
p93
aVyou could
p94
aVto purchase
p95
aVthird
p96
aVevery time
p97
aVone in
p98
aVone is
p99
aVexcellent
p100
aVmy name is
p101
aVcultural
p102
aVadventure
p103
aVthis is an
p104
aVshare this
p105
aVwhilst
p106
aVapril
p107
aVkeeps
p108
aVfinancial
p109
aVequipped
p110
aVcombined
p111
aVthe goal of
p112
aVmy work
p113
aVlook at
p114
aVedition
p115
aVspace
p116
aVpink
p117
aVpride
p118
aVof this kickstarter
p119
aVcompetitive
p120
aVfilmed
p121
aVfilm and
p122
aVyou choose
p123
aVtypes
p124
aVthe game
p125
aVprototype
p126
aVwhat can
p127
aVfocus on
p128
aVdid not
p129
aVcontribute
p130
aVstarted
p131
aVstarter
p132
aVmanagement
p133
aVmost of the
p134
aVlevel and
p135
aVshop
p136
aVshot
p137
aVshow
p138
aVthe world
p139
aVup on
p140
aVup of
p141
aVand only
p142
aVthe time
p143
aVsuch
p144
aVbesides
p145
aVcell
p146
aVpenny
p147
aVit may
p148
aVtheir work
p149
aVwith your friends
p150
aVwill
p151
aVwild
p152
aVbook
p153
aVfirst time
p154
aVreach the
p155
aVof creating
p156
aVsuccess of
p157
aVryan
p158
aVas our
p159
aVthe print
p160
aVcreatures
p161
aVepic
p162
aVnews
p163
aVvital
p164
aVthe black
p165
aVthat there
p166
aVand be
p167
aVperhaps
p168
aVintroducing
p169
aVapplications
p170
aVof many
p171
aVshort
p172
aVmedia
p173
aVfully
p174
aVto produce the
p175
aVflow
p176
aVsustainable
p177
aVand film
p178
aVmeeting
p179
aVbrothers
p180
aVcertainly
p181
aVeffort to
p182
aVdreams
p183
aVdollar
p184
aVbe found
p185
aVtaking
p186
aVproper
p187
aVsuch as
p188
aVlives of
p189
aVviewing
p190
aVgraphics
p191
aVcontrol
p192
aVyou wish
p193
aVapple
p194
aVposition
p195
aVworld to
p196
aVthe full
p197
aVto find
p198
aVthe different
p199
aVto see what
p200
aVanother
p201
aVconcept
p202
aV600
p203
aVbut we
p204
aVto find out
p205
aVthat we are
p206
aVwant you
p207
aVbook the
p208
aVbut will
p209
aVexceed
p210
aVthat your
p211
aVme the
p212
aVyear old
p213
aVreal
p214
aVread
p215
aVcompatible
p216
aVmoment
p217
aVme
p218
aVmm
p219
aVmr
p220
aVmy
p221
aVthis campaign
p222
aVultimately
p223
aVsigned by
p224
aVbusiness and
p225
aVcreating the
p226
aVthis content play
p227
aVsoftware
p228
aVhappen
p229
aVwhy we
p230
aVmade with
p231
aVto my
p232
aVto me
p233
aVactress
p234
aVthe history
p235
aVmarkets
p236
aVwant to do
p237
aVyour money
p238
aVcrystal
p239
aVis new
p240
aVdarkness
p241
aVcircle
p242
aVby me
p243
aVmanual
p244
aVover
p245
aVcheck
p246
aVaustralian
p247
aVblog
p248
aVcinematographer
p249
aVpending
p250
aVour campaign
p251
aVkinds of
p252
aVpast
p253
aVpass
p254
aVtested
p255
aVhigh quality
p256
aVdiscovered
p257
aVpodcast
p258
aVto buy
p259
aVyou won
p260
aVso you
p261
aVoctober
p262
aVof being
p263
aVrent
p264
aVwebsites
p265
aVusers
p266
aVeffective
p267
aVpledge
p268
aVgrace
p269
aVcomes to
p270
aVteam and
p271
aVdo and
p272
aVart of
p273
aVvs
p274
aVcompanies
p275
aVour current
p276
aVvalue
p277
aVwhat happens
p278
aVlooks
p279
aVwait to
p280
aVexperience in
p281
aVvenues
p282
aVdelicious
p283
aVbe shipped
p284
aVmanaged
p285
aVgathering
p286
aVroughly
p287
aVbicycle
p288
aVterm
p289
aVyear we
p290
aVmy dream
p291
aVcourse
p292
aVvideo and
p293
aVtom
p294
aVportfolio
p295
aVour mission
p296
aVchanged
p297
aVchanges
p298
aVcities
p299
aVbirds
p300
aVthink it
p301
aVmuch
p302
aVthe sky
p303
aVrest of
p304
aVinspired
p305
aVenhance
p306
aVinitial
p307
aVsample
p308
aVthat had
p309
aVthat has
p310
aVaccessories
p311
aVsince we
p312
aVany of
p313
aVlanguages
p314
aVuniversity of
p315
aVand has
p316
aVand she
p317
aVall your
p318
aVtop of the
p319
aVreleasing
p320
aVto tell
p321
aVhave no
p322
aVstudents
p323
aVbelow is
p324
aVreceive the
p325
aVin order to
p326
aVaim to
p327
aVnow that
p328
aVexclusively
p329
aVproject is to
p330
aVfor being
p331
aVzone
p332
aVneed your support
p333
aVworked on
p334
aVthe man
p335
aV100
p336
aVofficer
p337
aVyour hands
p338
aVand we have
p339
aVprocess of
p340
aVto sell
p341
aVmethod
p342
aVplace to
p343
aVsame time
p344
aVthe greatest
p345
aVdecember 2014
p346
aVexpand
p347
aVresolution
p348
aVyou will be
p349
aVlead
p350
aVrole
p351
aVroll
p352
aVbasis
p353
aVhas become
p354
aVbe included
p355
aVtracks
p356
aVamounts
p357
aVthrough
p358
aVcontract
p359
aVwill you
p360
aVowners
p361
aVthis kickstarter
p362
aVis done
p363
aVlargest
p364
aVpress
p365
aVof the best
p366
aVwalking
p367
aVlighting
p368
aVto explore
p369
aVtrying
p370
aVthey have
p371
aVcountries
p372
aV1st
p373
aVregion
p374
aVwhich will
p375
aVnatural
p376
aVbe the first
p377
aVbut they
p378
aVhandle
p379
aVhardware
p380
aVare so
p381
aVbrowser
p382
aVinstallation
p383
aVthese
p384
aVmysterious
p385
aVdemo
p386
aVtales
p387
aVopportunity to
p388
aVtopics
p389
aVfestivals
p390
aVshadows
p391
aVwatch
p392
aVgiven
p393
aVgives
p394
aVthe highest quality
p395
aVyoutube com
p396
aVsee this
p397
aVwithout you
p398
aVstyles
p399
aVillustrated
p400
aVcopy
p401
aVrates
p402
aVinvolved in
p403
aVperformances
p404
aVtips
p405
aVage of
p406
aVput together
p407
aVtag
p408
aVevil
p409
aVour kickstarter campaign
p410
aVfollowing
p411
aVincrease the
p412
aVmore
p413
aVcompany
p414
aVif there
p415
aVcampaign is
p416
aVwill have
p417
aVsketch
p418
aVlimits
p419
aVget
p420
aVhair
p421
aVtime the
p422
aVteam of
p423
aVrecords
p424
aVlevels
p425
aVlocation
p426
aVcrowd
p427
aVmiddle
p428
aVall of our
p429
aVto launch
p430
aValready
p431
aVgo towards
p432
aVhet
p433
aVher
p434
aVhey
p435
aVsomething to
p436
aVlegends
p437
aVbritish
p438
aVfeatured in
p439
aVhow the
p440
aVmirror
p441
aVthe land
p442
aVwill not
p443
aVas an
p444
aVpop
p445
aVrose
p446
aVhave you
p447
aVand you can
p448
aVfor your help
p449
aVproducer
p450
aVyour name on
p451
aVride
p452
aVthe night
p453
aVcome in
p454
aVall in
p455
aVversions
p456
aVmemory
p457
aVhighest quality
p458
aVfollow us on
p459
aVprotection
p460
aVexpertise
p461
aVmagazines
p462
aVpre production
p463
aVwould love
p464
aVdonation
p465
aVthe light
p466
aVbreakdown
p467
aVaction
p468
aVplay
p469
aVplan
p470
aVcom
p471
aVcon
p472
aVfilm festivals
p473
aVfull of
p474
aVdepth
p475
aVexperiment
p476
aVfrom one
p477
aVhow will
p478
aVisland
p479
aVenjoy
p480
aVcomes from
p481
aVwork in
p482
aVeverywhere
p483
aVunable to
p484
aVtakes
p485
aVtaken
p486
aVallow you to
p487
aVway to
p488
aVrequest
p489
aVradio
p490
aVapproach
p491
aVsince then
p492
aVthe documentary
p493
aVthe right
p494
aVlook forward
p495
aVon that
p496
aVyou want to
p497
aVthe album
p498
aVsan
p499
aVsam
p500
aVsay
p501
aVsaw
p502
aVof these
p503
aVwaste
p504
aVdiversity
p505
aVbetter
p506
aVwe think
p507
aVediting
p508
aVwritten by
p509
aVwith its
p510
aVfull time
p511
aVour goal is
p512
aVll need an
p513
aVpledge for
p514
aVprofessionals
p515
aVproduction costs
p516
aVcontrol of
p517
aVportrait
p518
aVfunctional
p519
aVopen source
p520
aV20 000
p521
aVrestaurants
p522
aVway for
p523
aVvolume
p524
aVwe will
p525
aVsuccessful
p526
aVrewards are
p527
aVwill help
p528
aVfrancisco
p529
aVenthusiasts
p530
aVbecause it
p531
aVunderstand
p532
aVevery
p533
aVeach one
p534
aVwe can get
p535
aVlower
p536
aVstory is
p537
aVdevices
p538
aVspring
p539
aValbum
p540
aVwill continue
p541
aVconsumer
p542
aViphone
p543
aVavailable to
p544
aVvan
p545
aVambitious
p546
aVset the
p547
aVyou will have
p548
aVdress
p549
aVand am
p550
aVand an
p551
aVand as
p552
aVthe remaining
p553
aVof the project
p554
aVmore about the
p555
aVchest
p556
aVof every
p557
aVsubscription
p558
aVthe total
p559
aVthe word
p560
aVthe work
p561
aVformed
p562
aVformer
p563
aVsure that
p564
aVthanks for
p565
aVinto the
p566
aVprovide the
p567
aVside of the
p568
aVtask
p569
aVparticipate in
p570
aVhusband
p571
aVstrong
p572
aVdawn
p573
aVgrow
p574
aVlands
p575
aVthat our
p576
aVcarefully
p577
aVcourage
p578
aVof making
p579
aVjust need
p580
aVjust like
p581
aVcircuit
p582
aVcreated by
p583
aVlaunching
p584
aVyou the
p585
aVis available
p586
aVfunding to
p587
aVside
p588
aVis great
p589
aVjewelry
p590
aVdimensions
p591
aVdiy
p592
aVused as
p593
aVfirst book
p594
aVimproved
p595
aVwhere you
p596
aVfive
p597
aVbook will be
p598
aVstretch goal
p599
aVof 2014
p600
aVfavourite
p601
aVmust
p602
aVnature
p603
aVfeeling
p604
aVpounds
p605
aVready for
p606
aVexcitement
p607
aVproblem
p608
aVallows you
p609
aVlearn more
p610
aVnick
p611
aVnice
p612
aVartist and
p613
aVlearn more about
p614
aVthem all
p615
aVmoney to
p616
aVthere were
p617
aVwill be
p618
aVdelivery
p619
aVen
p620
aVex
p621
aVet
p622
aVthe high
p623
aVout with
p624
aVidea
p625
aVinsurance
p626
aVworks
p627
aVserve
p628
aVto support
p629
aVwill become
p630
aVshipped
p631
aVfounder of
p632
aVends
p633
aVthe globe
p634
aVcovering
p635
aVlook
p636
aVwe need your
p637
aVorg
p638
aVpark
p639
aV48
p640
aV45
p641
aV40
p642
aVdoing
p643
aVmeaningful
p644
aVmexico
p645
aVfacebook page
p646
aVsupport of
p647
aVlabels
p648
aVvision
p649
aVhundred
p650
aVof all
p651
aVthat we
p652
aVand work
p653
aVenough
p654
aVsomething that
p655
aVcompatible with
p656
aVproduced by
p657
aVintroduction
p658
aVmeet the
p659
aVclose to
p660
aVmade in
p661
aVmade it
p662
aVfunny
p663
aVover the
p664
aVneed your help
p665
aVprops
p666
aVdownload of the
p667
aVcontributing
p668
aVcotton
p669
aVfocused
p670
aVback into
p671
aVof them
p672
aVand support
p673
aVfollow the
p674
aVbut as
p675
aVof the rewards
p676
aVlegal
p677
aVten
p678
aVtea
p679
aVtee
p680
aVlooking for
p681
aVand any
p682
aVin fact
p683
aVwe ve
p684
aVlooking
p685
aVthrough the
p686
aVwe believe that
p687
aVhollywood
p688
aVenergy
p689
aVwe could
p690
aVthe top of
p691
aVit for
p692
aVbecause of the
p693
aVsummer
p694
aVlegacy
p695
aVboth the
p696
aVwith this
p697
aVor nothing
p698
aVconventions
p699
aVmajority of
p700
aVuse the
p701
aVare currently
p702
aVto solve
p703
aVve made
p704
aVearth
p705
aVones
p706
aVquantity
p707
aVcalls
p708
aVand would
p709
aVan html5 capable
p710
aVdidn
p711
aVtwo of
p712
aVtaxes
p713
aVin the future
p714
aVgun
p715
aVguy
p716
aVstaff
p717
aVeven the
p718
aVto complete the
p719
aVwith us
p720
aVit be
p721
aVsuccess
p722
aVbridge
p723
aVbodies
p724
aVhalf of
p725
aVhill
p726
aVwhere you come
p727
aVincreasing
p728
aVfriends and
p729
aV3d printing
p730
aVowned
p731
aVowner
p732
aVwe reach
p733
aVtogether and
p734
aVthey can
p735
aVpretty
p736
aVthat will be
p737
aVfield
p738
aVcrime
p739
aVupdate
p740
aVmany of
p741
aVactivity
p742
aVthe design
p743
aVtime for
p744
aVconcepts
p745
aVfresh
p746
aVthe top
p747
aVthe game will
p748
aVair
p749
aVaim
p750
aVaid
p751
aVexplain
p752
aVrock
p753
aVsounds
p754
aVplan on
p755
aVtell you
p756
aVof you who
p757
aVpublication
p758
aVto understand
p759
aVto finish
p760
aVwho will
p761
aVindie
p762
aVindia
p763
aVclick on
p764
aVfor me to
p765
aVve always
p766
aVpublisher
p767
aVpublished
p768
aVmental
p769
aVare able to
p770
aVfabrics
p771
aVways
p772
aVwanted to
p773
aVwe ve got
p774
aVof his
p775
aVchoosing
p776
aVwith your support
p777
aVmichael
p778
aVto help us
p779
aVcoming
p780
aVof people
p781
aVit just
p782
aVwhen
p783
aVthere
p784
aVthe idea of
p785
aVdemon
p786
aVcollect
p787
aVposters
p788
aVcollaboration
p789
aVweather
p790
aVcan be
p791
aVso please
p792
aVinvention
p793
aVis our
p794
aVcolored
p795
aVmake them
p796
aVgroup of
p797
aVfor them
p798
aVagent
p799
aVdevelopment of
p800
aVgame of
p801
aVright now
p802
aVshowcase
p803
aVside of
p804
aVcoin
p805
aVyou in
p806
aVships
p807
aVsuggestions
p808
aVgolf
p809
aVgold
p810
aVif you would
p811
aVchef
p812
aVdon
p813
aVdog
p814
aVtiles
p815
aVlong as
p816
aVmost
p817
aVthey were
p818
aVultimate
p819
aVexpected
p820
aVwith these
p821
aVthat make
p822
aVthe web
p823
aVto keep
p824
aVlab
p825
aVlaw
p826
aVto spread
p827
aVyou ll also
p828
aVout in
p829
aVlabor
p830
aVfor everyone
p831
aVus the
p832
aVresearch and
p833
aVimprove the
p834
aVno longer
p835
aVartist
p836
aVnight
p837
aVhard work
p838
aVinterior
p839
aVdepending on the
p840
aVseat
p841
aVseal
p842
aVcan even
p843
aVcapable of
p844
aVmug
p845
aVaccurate
p846
aVquestions
p847
aVrelationship
p848
aVstainless steel
p849
aVactors
p850
aVboard game
p851
aVgame for
p852
aVaims
p853
aVfocused on
p854
aVlocated in
p855
aVteachers
p856
aVgroups
p857
aVfunded
p858
aVand made
p859
aVto people
p860
aVour kickstarter
p861
aVmakeup
p862
aVinspiring
p863
aVgrew up
p864
aVhighest
p865
aVplatforms
p866
aVatmosphere
p867
aVdonating
p868
aVsuper
p869
aVit really
p870
aVpractical
p871
aVto print
p872
aVmovement
p873
aVacting
p874
aVcnc
p875
aVthe deck
p876
aVweb
p877
aVcooler
p878
aVequipment
p879
aVneed an html5
p880
aVthe bottom
p881
aVdollars
p882
aVthe summer
p883
aVmode
p884
aVaustin
p885
aVthe biggest
p886
aVmonster
p887
aVeven better
p888
aVbrands
p889
aVof two
p890
aVwas to
p891
aVescape
p892
aVthe latest
p893
aVfunds raised
p894
aVadded
p895
aVpc
p896
aVpi
p897
aVwe have the
p898
aVknowing
p899
aVsite
p900
aVbetween
p901
aVif you are
p902
aVis all
p903
aVfebruary
p904
aVall our
p905
aVmake the
p906
aVto their
p907
aVas well
p908
aVlearning
p909
aVstructure
p910
aVovercome
p911
aVbackground
p912
aVand we ll
p913
aVin her
p914
aVyou can choose
p915
aVtake on
p916
aVneeded to
p917
aVadd on
p918
aVhistorical
p919
aVproducing
p920
aVprocess and
p921
aVwe ll be
p922
aVso that we
p923
aVthe bottom of
p924
aVto learn more
p925
aVwhere they
p926
aVwind
p927
aVwine
p928
aVwe need to
p929
aVto think
p930
aVcountless
p931
aVtouch
p932
aVand music
p933
aVcan see
p934
aVbrowser to
p935
aVbe used
p936
aVclothes
p937
aVpersonalized
p938
aVfilms and
p939
aVenvironmental
p940
aVeight
p941
aVcolor
p942
aVwill always
p943
aValong the way
p944
aVhardcover
p945
aVparticipate
p946
aVto date
p947
aVour goal
p948
aVtelevision
p949
aVthrow
p950
aVand very
p951
aVyou can find
p952
aVit has been
p953
aVthe stretch
p954
aVcreative
p955
aVor the
p956
aVeverything in
p957
aVof its
p958
aVthe many
p959
aVsafety
p960
aVspeak
p961
aVfact that
p962
aVearned
p963
aVprogress
p964
aVto donate
p965
aVrubber
p966
aVwhat to
p967
aVlocked
p968
aVdave
p969
aVto see
p970
aVby our
p971
aVor more
p972
aVkickstarter page
p973
aVwould
p974
aVwork with
p975
aVyears ago
p976
aVreach our
p977
aVstandards
p978
aVof work
p979
aVpromise
p980
aVto film
p981
aVteam
p982
aVimage
p983
aVnaturally
p984
aVgreen
p985
aVare only
p986
aVwill allow us
p987
aVconcert
p988
aVnamed
p989
aVnames
p990
aVof the art
p991
aVtwitter com
p992
aVchallenge
p993
aVillustration
p994
aVwonderful
p995
aVlack of
p996
aVshapes
p997
aVto provide
p998
aVall this
p999
aVthe standard
p1000
aVdo not
p1001
aVwith others
p1002
aVcanadian
p1003
aVthe images
p1004
aVstory that
p1005
aVan idea
p1006
aVwith the
p1007
aVthe money
p1008
aVknow
p1009
aVof fun
p1010
aVwill be made
p1011
aVcream
p1012
aVworth
p1013
aVthe project and
p1014
aVhelp you
p1015
aVcharacters and
p1016
aVwatch the
p1017
aVlord
p1018
aVthe united
p1019
aVto make this
p1020
aVextended
p1021
aVcentury
p1022
aVcheap
p1023
aVlong
p1024
aVcreate an
p1025
aVfirst
p1026
aVto expand
p1027
aVtaking the time
p1028
aVshown
p1029
aVshows
p1030
aVkick
p1031
aVluck
p1032
aVas part
p1033
aVcreate
p1034
aVunique and
p1035
aVpanel
p1036
aVis simple
p1037
aVschools
p1038
aVjust for
p1039
aVhaving
p1040
aVyou use
p1041
aVto include
p1042
aVmy name
p1043
aVand was
p1044
aVjobs
p1045
aV500
p1046
aVstand
p1047
aVwe plan to
p1048
aVrelease
p1049
aVall the way
p1050
aVrewards we
p1051
aVcameras
p1052
aVbar
p1053
aVbag
p1054
aVbad
p1055
aVyour contribution
p1056
aVdon have
p1057
aVwait
p1058
aVsurrounding
p1059
aVknow the
p1060
aVwork for
p1061
aVminiature
p1062
aVon board
p1063
aVdoor
p1064
aVplaces
p1065
aVplaced
p1066
aVasking
p1067
aVperiod
p1068
aVjeans
p1069
aVassembly
p1070
aVon his
p1071
aVhave made
p1072
aVcommission
p1073
aVyes
p1074
aVyet
p1075
aVroyal
p1076
aVmagazine
p1077
aVjourney
p1078
aVjacket
p1079
aVfrom all
p1080
aVrange
p1081
aVproduce the
p1082
aVgmail
p1083
aVactor
p1084
aVnumber
p1085
aVstanding
p1086
aVor you
p1087
aVyou play
p1088
aVthe scenes
p1089
aVwith any
p1090
aVcapabilities
p1091
aVexample
p1092
aVdrive
p1093
aVwith friends
p1094
aVhelp us make
p1095
aVrealized that
p1096
aVto them
p1097
aVfor every
p1098
aVis already
p1099
aVcover the
p1100
aVsetup
p1101
aVthe cards
p1102
aVdice
p1103
aVmerchandise
p1104
aVup the
p1105
aVseems
p1106
aVwant you to
p1107
aVlight
p1108
aVany other
p1109
aVit as
p1110
aVfor those
p1111
aVfolks
p1112
aVworked in
p1113
aVto market
p1114
aVyourself
p1115
aVcharged
p1116
aVcontent
p1117
aVhave done
p1118
aVhelped
p1119
aVsoft
p1120
aVsleep
p1121
aVthe hands
p1122
aVfinds
p1123
aVapply
p1124
aVphotos
p1125
aVoutput
p1126
aVlisten to
p1127
aVmanage
p1128
aVit not
p1129
aVmet
p1130
aVfrom their
p1131
aVin an
p1132
aVhttps www
p1133
aVflavor
p1134
aVinstructions
p1135
aVcomes in
p1136
aVfront of
p1137
aVneed the
p1138
aVhandmade
p1139
aVdownload of
p1140
aVto ask
p1141
aVlove with
p1142
aVfunding for
p1143
aVexample of
p1144
aVseveral
p1145
aVstudios
p1146
aVwith our
p1147
aVraised
p1148
aVkickstarter backers
p1149
aVthe finished
p1150
aVtechnology and
p1151
aVlouis
p1152
aVstep
p1153
aVsimple and
p1154
aVcorner
p1155
aVfashion
p1156
aVmatt
p1157
aVto hire
p1158
aVplease help
p1159
aVpreviously
p1160
aVthe story
p1161
aVit about
p1162
aVfunds for
p1163
aVdeck
p1164
aVseattle
p1165
aVcritical
p1166
aVlet me
p1167
aVcollection
p1168
aVwater
p1169
aVinitially
p1170
aVbe the
p1171
aVidentity
p1172
aVin one
p1173
aVjosh
p1174
aVapprox
p1175
aVforgotten
p1176
aVseries of
p1177
aVtiny
p1178
aVan additional
p1179
aVplay 00 00
p1180
aVperformance
p1181
aVwhich is
p1182
aVsmart
p1183
aVdisease
p1184
aVzombie
p1185
aVfundraising
p1186
aVdiameter
p1187
aVfacebook twitter
p1188
aVpassion for
p1189
aVauthentic
p1190
aVhistory
p1191
aVefficient
p1192
aVpressure
p1193
aVexploration
p1194
aVuse to
p1195
aVsmaller
p1196
aVgoal of
p1197
aVfame
p1198
aVdiscuss
p1199
aVwith new
p1200
aVfilm that
p1201
aVfeatured on
p1202
aVespecially
p1203
aVit with
p1204
aV25
p1205
aV26
p1206
aV22
p1207
aVmoving
p1208
aVwooden
p1209
aVout the
p1210
aVbelt
p1211
aVto achieve
p1212
aVended
p1213
aVdeath
p1214
aVdragon
p1215
aVwill give
p1216
aVstorytelling
p1217
aVhe
p1218
aVwill get
p1219
aVto raise
p1220
aVcredits
p1221
aVsay that
p1222
aVevolution
p1223
aVwe all
p1224
aVnear
p1225
aVthose
p1226
aVelectronics
p1227
aVtalking
p1228
aVone day
p1229
aVthe stories
p1230
aVwe get
p1231
aVscenes
p1232
aVcar
p1233
aVcap
p1234
aVcat
p1235
aVcan
p1236
aVmanufacture
p1237
aVthe past
p1238
aVnearly
p1239
aVfacing
p1240
aVpurpose
p1241
aVthere will
p1242
aVas long as
p1243
aVcurrently
p1244
aVcombo
p1245
aVgoal will
p1246
aVone that
p1247
aVstart to
p1248
aVindependent
p1249
aVan exclusive
p1250
aVan old
p1251
aVincludes the
p1252
aVnylon
p1253
aVmake it
p1254
aVbe able to
p1255
aVview
p1256
aVone thing
p1257
aVcoffee
p1258
aVselected
p1259
aVadd ons
p1260
aVand want to
p1261
aVmy life
p1262
aVversatile
p1263
aVwe will be
p1264
aVvalues
p1265
aVpick
p1266
aVthe end
p1267
aVpeople to
p1268
aVand why
p1269
aVat any
p1270
aVlike you
p1271
aVwe do
p1272
aVyou like to
p1273
aVwho has
p1274
aVhi
p1275
aVhd
p1276
aVshe was
p1277
aVit will be
p1278
aVto get
p1279
aVlayer
p1280
aVrest
p1281
aVin 2011
p1282
aVin 2013
p1283
aVin 2012
p1284
aVheart
p1285
aVheard
p1286
aVto help you
p1287
aVwas created
p1288
aVeverything
p1289
aVwhen you
p1290
aV75
p1291
aV70
p1292
aVpolitical
p1293
aVimmediately
p1294
aVas many
p1295
aVmost of
p1296
aVshall
p1297
aVsanta
p1298
aVits
p1299
aVcarrying
p1300
aVlove for
p1301
aVbeginning of
p1302
aVat the same
p1303
aValbums
p1304
aVscale
p1305
aVwords
p1306
aVbring the
p1307
aVsaying
p1308
aVproject and
p1309
aVpaper
p1310
aVriding
p1311
aVexposure
p1312
aVend of the
p1313
aVthis happen
p1314
aVeditor
p1315
aVtreasure
p1316
aVthe cost
p1317
aVand their
p1318
aVso much
p1319
aVis so
p1320
aVfor long
p1321
aVgenre
p1322
aVtop of
p1323
aVmost importantly
p1324
aVwww
p1325
aVbroken
p1326
aVnone
p1327
aVdoors
p1328
aVanimals
p1329
aVthe initial
p1330
aVin front
p1331
aVthe final
p1332
aVeyes
p1333
aVto thank
p1334
aVso if
p1335
aVso it
p1336
aVdo something
p1337
aVyou with
p1338
aVthe ground
p1339
aVreceived
p1340
aVout on
p1341
aVour production
p1342
aVvehicle
p1343
aVof the kickstarter
p1344
aVworld we
p1345
aVand other
p1346
aVjason
p1347
aVdomestic
p1348
aVtrip
p1349
aVbe used to
p1350
aVif they
p1351
aVthe very
p1352
aVchoice of
p1353
aVresources
p1354
aVwe go
p1355
aVcause
p1356
aVparty
p1357
aVapplied
p1358
aVbased on
p1359
aVandrew
p1360
aVout to
p1361
aVpeace
p1362
aVhe will
p1363
aVyou and your
p1364
aVnovel
p1365
aVdigital
p1366
aVand much
p1367
aVperformed
p1368
aVlove of
p1369
aVyouth
p1370
aVavailable
p1371
aVmore will
p1372
aVfree to
p1373
aVsuitable
p1374
aVgenerated
p1375
aVand up
p1376
aVplant
p1377
aVdistance
p1378
aVfamiliar
p1379
aVon top
p1380
aVthis level
p1381
aVavoid
p1382
aVvenue
p1383
aVwe wanted
p1384
aVname in
p1385
aVname is
p1386
aVthat not
p1387
aVshops
p1388
aVreturn
p1389
aVexperience the
p1390
aVnotes
p1391
aVgetting
p1392
aVkids
p1393
aVprofessionally
p1394
aVcheck out the
p1395
aVcouple
p1396
aVand now
p1397
aVand not
p1398
aVbooks
p1399
aVextra
p1400
aVwill be in
p1401
aVimportant to
p1402
aVmade from
p1403
aVnot just
p1404
aVjazz
p1405
aValong the
p1406
aVand that
p1407
aV000 will
p1408
aVmust be
p1409
aVin the book
p1410
aVclick
p1411
aVand put
p1412
aVpacked
p1413
aVmakes it
p1414
aVyou make
p1415
aVwho have
p1416
aVit was
p1417
aVbit of
p1418
aVin mind
p1419
aVbike
p1420
aVcampaigns
p1421
aVcreated
p1422
aVcreates
p1423
aVprove
p1424
aVour vision
p1425
aVthe concept
p1426
aVand when
p1427
aVeye
p1428
aVdone
p1429
aVthat all
p1430
aVand all
p1431
aVsettings
p1432
aVdecks
p1433
aVwill be the
p1434
aVthis
p1435
aVwith his
p1436
aVdesk
p1437
aVwider
p1438
aVas possible
p1439
aVthe only
p1440
aVlimited to
p1441
aVparticularly
p1442
aVdue to the
p1443
aVhomes
p1444
aVaccomplished
p1445
aVsarah
p1446
aVwheel
p1447
aVfunctions
p1448
aVexpress
p1449
aVyou ll receive
p1450
aVproduction of
p1451
aVguitar
p1452
aVquestion
p1453
aVthis is
p1454
aVdo this
p1455
aVin this
p1456
aVthis year
p1457
aVcampaign we
p1458
aVmanufacturers
p1459
aVwould like
p1460
aVvoice
p1461
aVthe minimum
p1462
aVrun of
p1463
aVtotally
p1464
aVart and
p1465
aVpleasure
p1466
aVbottle
p1467
aVwith more
p1468
aVrequire
p1469
aVfighting
p1470
aValready been
p1471
aV150
p1472
aVreliable
p1473
aVan independent
p1474
aVrooms
p1475
aVtypically
p1476
aVselling
p1477
aVpage
p1478
aVheight
p1479
aVcopper
p1480
aVbuying
p1481
aVplace in
p1482
aVonce
p1483
aVbe added
p1484
aVconsole
p1485
aVboston
p1486
aVknow how
p1487
aVthe food
p1488
aVdancers
p1489
aVleft
p1490
aVpay
p1491
aVpad
p1492
aVroad
p1493
aVif you
p1494
aVof great
p1495
aVand digital
p1496
aVartwork
p1497
aVto pursue
p1498
aVrocket
p1499
aVfor two
p1500
aVdaniel
p1501
aVkeep it
p1502
aVapplication
p1503
aVthere will be
p1504
aVin the past
p1505
aVtour
p1506
aVon my
p1507
aVyou ll have
p1508
aVfor shipping
p1509
aVpossibility
p1510
aVdetailed
p1511
aVof an
p1512
aVspread
p1513
aVrights
p1514
aVtransportation
p1515
aVshelf
p1516
aVthis journey
p1517
aVcommunication
p1518
aVwww youtube
p1519
aVdrinking
p1520
aVpursue
p1521
aVst
p1522
aVso
p1523
aVdesigned by
p1524
aVwriter
p1525
aVcollecting
p1526
aVbring
p1527
aVdo we
p1528
aVmoney
p1529
aVbrand new
p1530
aVon your
p1531
aVclose
p1532
aVthe use of
p1533
aVfew years
p1534
aVcook
p1535
aVcool
p1536
aVwhat makes
p1537
aVtime
p1538
aVto travel
p1539
aVwhere
p1540
aVto bring the
p1541
aVbusiness
p1542
aVstarts
p1543
aVdie
p1544
aVunited
p1545
aVpostage
p1546
aVyou have
p1547
aVand play
p1548
aVhave always
p1549
aVproject will be
p1550
aVservice
p1551
aVthe most
p1552
aVindividuals
p1553
aVto backers
p1554
aVhang
p1555
aVhand
p1556
aVin to
p1557
aVthe big
p1558
aVthrough this
p1559
aVbasic
p1560
aVvisit
p1561
aVmonitor
p1562
aVpockets
p1563
aVcome true
p1564
aVhidden
p1565
aVexplore the
p1566
aVprimarily
p1567
aVare also
p1568
aVwhen we
p1569
aVfrance
p1570
aVthe quality of
p1571
aVpaint
p1572
aVmuch more
p1573
aVcomfortable
p1574
aVthe current
p1575
aVwhole
p1576
aVindividual
p1577
aVclothing
p1578
aVlife is
p1579
aVlife in
p1580
aVthis product
p1581
aVscreen
p1582
aVearlier
p1583
aVstandard
p1584
aVthe key
p1585
aVwithin
p1586
aVunder
p1587
aVworkshops
p1588
aVmy goal is
p1589
aVquest
p1590
aVif you can
p1591
aVschedule
p1592
aVarduino
p1593
aVto offer
p1594
aVfiber
p1595
aVsignature
p1596
aVgrip
p1597
aVgrid
p1598
aVthey are
p1599
aVinternational shipping
p1600
aVand we
p1601
aVand you ll
p1602
aVexciting
p1603
aVbass
p1604
aVblend
p1605
aVthe film
p1606
aVor two
p1607
aVset up
p1608
aVhour
p1609
aVand time
p1610
aVattention
p1611
aVto back
p1612
aVgarden
p1613
aVall of the
p1614
aVthe company
p1615
aVproduction
p1616
aVliving in
p1617
aVstart up
p1618
aVwithout your
p1619
aVdozens of
p1620
aVthe more
p1621
aVand video
p1622
aVmolds
p1623
aVchoose to
p1624
aVshould
p1625
aVchecking
p1626
aVthe internet
p1627
aVreviews
p1628
aVpitch
p1629
aVthing
p1630
aVthink
p1631
aVhave had
p1632
aVhearing
p1633
aVenvironment
p1634
aVneed an
p1635
aVpublishers
p1636
aVroom
p1637
aVactually
p1638
aVover the past
p1639
aVeverybody
p1640
aVbags
p1641
aVdifferent
p1642
aVlike us
p1643
aVat least
p1644
aVmusic is
p1645
aVit to the
p1646
aVmath
p1647
aVwe are looking
p1648
aValso
p1649
aVphotographers
p1650
aVthe user
p1651
aVll be
p1652
aVfriendly
p1653
aVtells
p1654
aVthose of
p1655
aVthe earth
p1656
aVhelp with
p1657
aVme to
p1658
aVvisual
p1659
aVour first
p1660
aVhow it
p1661
aVsister
p1662
aVtimeline
p1663
aVduring
p1664
aVwhich you
p1665
aVcancer
p1666
aVfactory
p1667
aVare all
p1668
aVand friends
p1669
aVprivate
p1670
aVsize of
p1671
aVus we
p1672
aVidea for
p1673
aVpeople can
p1674
aVsport
p1675
aVthe success of
p1676
aVmake it happen
p1677
aVthe one
p1678
aVthe experience
p1679
aVthem to
p1680
aVoutside
p1681
aVwouldn
p1682
aVtables
p1683
aVtablet
p1684
aVto join
p1685
aVto his
p1686
aVload
p1687
aVand let
p1688
aVemail
p1689
aVmanager
p1690
aVout there
p1691
aVvarious
p1692
aVteaching
p1693
aVand after
p1694
aVgiant
p1695
aVkits
p1696
aVor any
p1697
aVthe details
p1698
aVgeneration
p1699
aVpants
p1700
aVthem for
p1701
aVso you can
p1702
aVletters
p1703
aVyou know
p1704
aVgrant
p1705
aVgrand
p1706
aVsurface
p1707
aVthe lives
p1708
aVat work
p1709
aVfrom an
p1710
aVfind out
p1711
aVtower
p1712
aVwritten and
p1713
aVprofessor
p1714
aVdate
p1715
aVdata
p1716
aVengage
p1717
aVfor an
p1718
aVapparel
p1719
aVthe planet
p1720
aVto order
p1721
aVbe part
p1722
aVwas an
p1723
aVgraphic novel
p1724
aVyou will receive
p1725
aVbeauty
p1726
aVif we reach
p1727
aVinitial goal
p1728
aVdeeply
p1729
aVgrowth
p1730
aVsign
p1731
aVbook of
p1732
aVgives you
p1733
aVmounted
p1734
aVremains
p1735
aVfinish the
p1736
aVbus
p1737
aVslowly
p1738
aVto your pledge
p1739
aVwill look
p1740
aVtwo
p1741
aVforest
p1742
aVlots of
p1743
aVto share with
p1744
aVhttps www facebook
p1745
aVperfect for
p1746
aVhaven
p1747
aVdirector of
p1748
aVyour
p1749
aVis that
p1750
aVcaptain
p1751
aVll also
p1752
aVas part of
p1753
aVcutting
p1754
aVand will
p1755
aVfar
p1756
aVfan
p1757
aVchina
p1758
aVto present
p1759
aVbecome the
p1760
aVbecause they
p1761
aVcountry
p1762
aV000
p1763
aVcostume
p1764
aVspirit
p1765
aVto an
p1766
aVyou ever
p1767
aVthe us
p1768
aVthe uk
p1769
aVcondition
p1770
aVcopy of the
p1771
aVblack
p1772
aVup with
p1773
aVmake you
p1774
aVthe campaign
p1775
aVand you will
p1776
aVstrategy
p1777
aVcould have
p1778
aVaspects
p1779
aVchurch
p1780
aVin life
p1781
aVtotal
p1782
aVsoundtrack
p1783
aVdirectly
p1784
aVwhere he
p1785
aVhumans
p1786
aVdifference
p1787
aVby hand
p1788
aVsimple
p1789
aVsimply
p1790
aVdifficult to
p1791
aVthe songs
p1792
aVshow the
p1793
aVand small
p1794
aVwide
p1795
aVbacking
p1796
aValike
p1797
aVto produce
p1798
aVpiece
p1799
aVthank you
p1800
aVafrican
p1801
aVannual
p1802
aVshooting
p1803
aVcaptured
p1804
aVthat it is
p1805
aVthe process
p1806
aVthe result
p1807
aVbox
p1808
aVboy
p1809
aVbob
p1810
aVminimum
p1811
aVare just
p1812
aVin advance
p1813
aVplus
p1814
aVproud
p1815
aVme and
p1816
aVwherever
p1817
aVcan help
p1818
aVdecember
p1819
aVtechnical
p1820
aVit to
p1821
aVnever
p1822
aVare no
p1823
aVto pick
p1824
aVlet you
p1825
aVminutes
p1826
aVstreet
p1827
aVcombinations
p1828
aVmodule
p1829
aVexcept
p1830
aVpermanent
p1831
aVfor one
p1832
aVobject
p1833
aVyour family
p1834
aVstrange
p1835
aVwell
p1836
aVblessed
p1837
aVwith all
p1838
aVfocus
p1839
aVan html5
p1840
aVand her
p1841
aVare still
p1842
aVinner
p1843
aVready to go
p1844
aVmasters
p1845
aVwe hope
p1846
aVcampaign to
p1847
aVbuilt
p1848
aVbuild
p1849
aVcontact us
p1850
aVand above
p1851
aVthe road
p1852
aVwith different
p1853
aVfor you to
p1854
aVhe has
p1855
aVbecame
p1856
aVmore than just
p1857
aVfor that
p1858
aVhis life
p1859
aVland
p1860
aVallow me to
p1861
aVsystems
p1862
aValternative
p1863
aVform of
p1864
aVchristian
p1865
aVthe moment
p1866
aVworld and
p1867
aVlisted
p1868
aVplay 00
p1869
aVsection
p1870
aVnot the
p1871
aVsession
p1872
aVclosely
p1873
aVhere the
p1874
aVracing
p1875
aVadults
p1876
aVplease note
p1877
aVoperating
p1878
aVwestern
p1879
aVhave been
p1880
aVand
p1881
aVany
p1882
aVthe chance to
p1883
aVshirts and
p1884
aVcross
p1885
aVeverything you
p1886
aVthrough our
p1887
aVas to
p1888
aVtight
p1889
aVreaders
p1890
aVpeople that
p1891
aVbirth
p1892
aVto be
p1893
aVwith each
p1894
aVequipment and
p1895
aVdesigned and
p1896
aVan opportunity
p1897
aVmusic videos
p1898
aVthis game
p1899
aVtraveling
p1900
aVuntil
p1901
aVprison
p1902
aVloving
p1903
aVtote
p1904
aVgraduate
p1905
aVmajor
p1906
aVyour help
p1907
aVforced
p1908
aVforces
p1909
aVanimated
p1910
aVback of
p1911
aVassembled
p1912
aVno more
p1913
aVenemies
p1914
aVbut this
p1915
aVsongs
p1916
aVdepartment
p1917
aVeducation
p1918
aVtesting
p1919
aVdeal
p1920
aVdead
p1921
aVneeds
p1922
aVthe cost of
p1923
aVand one
p1924
aVwrote
p1925
aVmillion
p1926
aVthank you so
p1927
aVthis new
p1928
aVcold
p1929
aVtradition
p1930
aVks
p1931
aVin the middle
p1932
aVfun and
p1933
aVapps
p1934
aVbefore we
p1935
aVmove
p1936
aVbackers
p1937
aVthem and
p1938
aVcharacter
p1939
aVrecording
p1940
aVllc
p1941
aVplans
p1942
aVit out
p1943
aVnumerous
p1944
aVselection
p1945
aVstretch
p1946
aVthe player
p1947
aVcampaign will
p1948
aVand we will
p1949
aVif you re
p1950
aVable to
p1951
aVsoul
p1952
aVll receive
p1953
aVto survive
p1954
aVbefore the
p1955
aVtarot
p1956
aVdouble
p1957
aVdozen
p1958
aVthe project is
p1959
aVself
p1960
aVperfect
p1961
aVtechniques
p1962
aVthe screen
p1963
aVand production
p1964
aVlets
p1965
aVthe beginning
p1966
aVfound
p1967
aVunderstand the
p1968
aVthen the
p1969
aVthat will
p1970
aVsolve
p1971
aVour customers
p1972
aVbut you
p1973
aVin which
p1974
aVthe idea
p1975
aVpurchased
p1976
aVsteampunk
p1977
aVboss
p1978
aVall my
p1979
aVthe perfect
p1980
aVthe website
p1981
aVincludes
p1982
aVincluded
p1983
aVthe table
p1984
aVcable
p1985
aVthe largest
p1986
aVdad
p1987
aVwe are
p1988
aVmake
p1989
aVneck
p1990
aVwhen they
p1991
aVthe world to
p1992
aVonly one
p1993
aVpopulation
p1994
aVpiano
p1995
aVled
p1996
aVlet
p1997
aVto making
p1998
aVbegin
p1999
aVthat can be
p2000
aVjust
p2001
aVdaily
p2002
aVswitch
p2003
aVparent
p2004
aVto meet
p2005
aVotherwise
p2006
aVbecause you
p2007
aVfortunate
p2008
aVwe can do
p2009
aVwith great
p2010
aVto move
p2011
aVdrawn
p2012
aVthere are many
p2013
aVno one
p2014
aVyour pledge
p2015
aVspeaker
p2016
aVso what
p2017
aVmeets
p2018
aVhigher
p2019
aVunknown
p2020
aVlightweight
p2021
aVwill provide
p2022
aVsex
p2023
aVsee
p2024
aVsea
p2025
aVwe would
p2026
aVsides
p2027
aVgenerous
p2028
aVto ensure that
p2029
aVsword
p2030
aVmedium
p2031
aVand of course
p2032
aVwe don
p2033
aVallowed
p2034
aVconfidence
p2035
aVinches
p2036
aVkickstarter
p2037
aVlike to
p2038
aVproject for
p2039
aVprice
p2040
aVat all
p2041
aVgamers
p2042
aVportable
p2043
aVmajority
p2044
aVbe an
p2045
aVbe as
p2046
aVwill receive
p2047
aVaccount
p2048
aVthe future
p2049
aVup your
p2050
aVto make sure
p2051
aVgain
p2052
aVexisting
p2053
aVhoping
p2054
aVmanufacturing
p2055
aVexamples of
p2056
aVthe line
p2057
aVthe link
p2058
aVcontinued
p2059
aVcan find
p2060
aVmeasure
p2061
aVinvest
p2062
aV00 00 00
p2063
aVplastic
p2064
aVpublish
p2065
aVto complete
p2066
aVnon
p2067
aVnow
p2068
aVstation
p2069
aVis designed
p2070
aVour website
p2071
aVallow us
p2072
aVny
p2073
aVthe number
p2074
aVprimary
p2075
aVthe point
p2076
aVoff the
p2077
aVproductions
p2078
aVhire
p2079
aVis why
p2080
aVsocial media
p2081
aVnecessary to
p2082
aVtwice
p2083
aVgreatest
p2084
aVthe camera
p2085
aVlessons
p2086
aVformat
p2087
aVand fun
p2088
aVhappy to
p2089
aVfrom our
p2090
aVas soon as
p2091
aVcanada
p2092
aVyears of experience
p2093
aVassociation
p2094
aVpledge level
p2095
aVachieved
p2096
aVcharging
p2097
aVall the
p2098
aVhtml5 capable
p2099
aVretail price
p2100
aVdraft
p2101
aVhave their
p2102
aVchance
p2103
aVsupport this
p2104
aVlicensing
p2105
aVlist of
p2106
aVin return
p2107
aVserver
p2108
aVclips
p2109
aVbe done
p2110
aVscript
p2111
aVbecause
p2112
aVfeature film
p2113
aVabove the
p2114
aVall these
p2115
aVin london
p2116
aVunder the
p2117
aVthe crew
p2118
aVcloser to
p2119
aVsolar
p2120
aVcomfort
p2121
aVhas an
p2122
aVyou you
p2123
aVwill then
p2124
aVhistoric
p2125
aVorganic
p2126
aVstunning
p2127
aVconnection
p2128
aVpirate
p2129
aVcapable browser
p2130
aVin two
p2131
aVyou that
p2132
aVfestival
p2133
aVexpanding
p2134
aVhave the
p2135
aVwould like to
p2136
aVit to be
p2137
aVthe back
p2138
aVsearch
p2139
aVranging from
p2140
aVdoes not
p2141
aVis more
p2142
aVwithin the
p2143
aVtruth
p2144
aVrewards will
p2145
aVanthology
p2146
aVmy own
p2147
aVfinance
p2148
aVis based on
p2149
aVkit
p2150
aVkid
p2151
aVsupporter
p2152
aVflying
p2153
aVthere are
p2154
aVhelping
p2155
aVspace to
p2156
aVthree years
p2157
aVevery day
p2158
aVsouthern
p2159
aVto build
p2160
aVsan francisco
p2161
aVexploring
p2162
aVand also
p2163
aVare now
p2164
aVare not
p2165
aVprinter
p2166
aVprinted
p2167
aVof high
p2168
aVrespect
p2169
aVclimate
p2170
aVloss
p2171
aVlost
p2172
aVlose
p2173
aVzombies
p2174
aVpages of
p2175
aVthe story of
p2176
aVdirector
p2177
aVback this
p2178
aVattend
p2179
aVbeyond the
p2180
aVevery single
p2181
aVyour choice of
p2182
aVsmooth
p2183
aVphysical
p2184
aVdesigned for
p2185
aVseeing
p2186
aVexperience with
p2187
aVtank
p2188
aVthe hands of
p2189
aVbehind
p2190
aVmake sure
p2191
aVpre
p2192
aVpro
p2193
aVve
p2194
aVdeal with
p2195
aVpartners
p2196
aVbe added to
p2197
aVplenty
p2198
aV50 000
p2199
aVwaiting for
p2200
aVhave worked
p2201
aV15 000
p2202
aVpurposes
p2203
aVhelp we
p2204
aVresin
p2205
aVwill need to
p2206
aVit you
p2207
aVyears we
p2208
aVin order
p2209
aVdonate
p2210
aVwill start
p2211
aVwinning
p2212
aVof that
p2213
aVto write
p2214
aVtap
p2215
aVtax
p2216
aVare on
p2217
aVbeing
p2218
aVamerican
p2219
aVbit
p2220
aVlondon
p2221
aVacross
p2222
aVall those
p2223
aVdetail
p2224
aVhopefully
p2225
aVauthor
p2226
aVin the united
p2227
aVis in
p2228
aVis it
p2229
aVmount
p2230
aVindustry
p2231
aVcustomer
p2232
aVthe heart
p2233
aVtech
p2234
aVpens
p2235
aVgo on
p2236
aVchoose the
p2237
aVto become
p2238
aVwant to give
p2239
aVcontinue
p2240
aVrace
p2241
aVeach of
p2242
aVproperty
p2243
aVit would be
p2244
aVthe same
p2245
aVpresident
p2246
aVlast year
p2247
aVwith it
p2248
aValso be
p2249
aVexperts
p2250
aVdungeon
p2251
aVworld that
p2252
aVcombination
p2253
aVthat we have
p2254
aVthin
p2255
aVnotice
p2256
aVthe author
p2257
aVbeyond
p2258
aVclear
p2259
aVclean
p2260
aVmore we
p2261
aVeating
p2262
aVfinal
p2263
aVcall
p2264
aVtrack
p2265
aVthe books
p2266
aVmainly
p2267
aVmissions
p2268
aVend of
p2269
aVwindows
p2270
aVhip
p2271
aVhis
p2272
aVhim
p2273
aVdepending
p2274
aVchoices
p2275
aVan important
p2276
aVnext level
p2277
aVplace where
p2278
aVoperation
p2279
aVdeserves
p2280
aVrealize
p2281
aVof
p2282
aVwant the
p2283
aVbook and
p2284
aVand special
p2285
aVleds
p2286
aVsitting
p2287
aVpcb
p2288
aVhelp make
p2289
aVgenerally
p2290
aVhowever
p2291
aVpledging
p2292
aVto any
p2293
aVto and
p2294
aVyou love
p2295
aVanimal
p2296
aVgo into
p2297
aVdesktop
p2298
aVtown
p2299
aVbuildings
p2300
aVretail
p2301
aVthese are
p2302
aVthe app
p2303
aVseptember
p2304
aVcelebrate
p2305
aVto run
p2306
aVproud to
p2307
aVchris
p2308
aVparties
p2309
aVwe hope you
p2310
aVstrap
p2311
aVwhat
p2312
aVenjoy the
p2313
aVyour support
p2314
aVstress
p2315
aVreview
p2316
aVyour donations
p2317
aVmy favorite
p2318
aVan example
p2319
aVmake this
p2320
aVand crew
p2321
aVcome
p2322
aVless than
p2323
aVll be able
p2324
aVconcept art
p2325
aVis currently
p2326
aVchip
p2327
aVtime in
p2328
aVconsists
p2329
aVdo with
p2330
aVthis to
p2331
aVsun
p2332
aVexplore
p2333
aVrare
p2334
aVbut we need
p2335
aVsilver
p2336
aVwww facebook
p2337
aVone for
p2338
aVstates
p2339
aVhook
p2340
aVco
p2341
aVca
p2342
aVcd
p2343
aVcolour
p2344
aVtogether
p2345
aVhalf
p2346
aVhall
p2347
aVhow they
p2348
aVthe costs of
p2349
aVto spend
p2350
aVmodels
p2351
aVcolorado
p2352
aVgames and
p2353
aVjust few
p2354
aVwas born
p2355
aV24
p2356
aV20
p2357
aV21
p2358
aV28
p2359
aV29
p2360
aV2d
p2361
aVfans
p2362
aVonto
p2363
aVstyle
p2364
aVhandling
p2365
aVdesign
p2366
aVthe system
p2367
aVkeep the
p2368
aVbeat
p2369
aVbear
p2370
aVrich
p2371
aVdo you
p2372
aVwell as
p2373
aVgermany
p2374
aVcan also
p2375
aVborn
p2376
aVguide
p2377
aVsave
p2378
aVso many
p2379
aVplays
p2380
aVdenim
p2381
aVduring this
p2382
aVinterviews
p2383
aVwill help us
p2384
aVturn
p2385
aVis going
p2386
aVmeals
p2387
aVthe world we
p2388
aVdozens
p2389
aVrevolution
p2390
aVmostly
p2391
aVfaith
p2392
aVvillage
p2393
aVtwist
p2394
aVdates
p2395
aVby the
p2396
aVthe help
p2397
aVthe role
p2398
aVpart of
p2399
aVthem the
p2400
aVto improve
p2401
aVfollow
p2402
aVlooking at
p2403
aVway
p2404
aVwas
p2405
aVwar
p2406
aVget your
p2407
aVfound in
p2408
aVwork to
p2409
aVis now
p2410
aVmother
p2411
aVthis kickstarter is
p2412
aVto start
p2413
aVthe actual
p2414
aVmarket
p2415
aVflavors
p2416
aVwith you
p2417
aVorganization
p2418
aVprototyping
p2419
aVdc
p2420
aVgather
p2421
aVto follow
p2422
aVfaces
p2423
aVthis project is
p2424
aVwould not
p2425
aVdetermine
p2426
aVwoods
p2427
aVour product
p2428
aVinnovative
p2429
aVwill be added
p2430
aVperson
p2431
aVof 10
p2432
aVsimilar
p2433
aVit takes
p2434
aVto publish
p2435
aVcards
p2436
aVyour friends and
p2437
aVpeople who
p2438
aVdecades
p2439
aVthe base
p2440
aVsteel
p2441
aVwill enable
p2442
aVgame is
p2443
aVfrom your
p2444
aVbattery
p2445
aVthings like
p2446
aVcreation of
p2447
aVto hear
p2448
aVsupply
p2449
aVenough to
p2450
aVif you have
p2451
aVup in
p2452
aVmoney and
p2453
aVaround
p2454
aVsuit
p2455
aVneed you
p2456
aVall or nothing
p2457
aVas it is
p2458
aVallows us
p2459
aVstudio
p2460
aVto come
p2461
aVcheese
p2462
aVlimited
p2463
aVcontroller
p2464
aVfeed
p2465
aVfeel
p2466
aVfeet
p2467
aVfees
p2468
aVslightly
p2469
aVmounting
p2470
aValpha
p2471
aVto work
p2472
aVwhile
p2473
aVhosting
p2474
aVthe old
p2475
aVthe human
p2476
aVsmall
p2477
aVand do
p2478
aVlock
p2479
aVfor the first
p2480
aVkickstarter project
p2481
aVmorning
p2482
aVcut
p2483
aVcup
p2484
aV400
p2485
aVflat
p2486
aVall backers
p2487
aVrequired to
p2488
aVspecifically
p2489
aVonly to
p2490
aVin their
p2491
aVspeed
p2492
aVthemed
p2493
aVmessages
p2494
aVthe body
p2495
aVvoices
p2496
aVcourse of
p2497
aVof other
p2498
aVkind of
p2499
aVcopies of
p2500
aVkingdom
p2501
aVof your
p2502
aVdark
p2503
aVnative
p2504
aVyou ll be
p2505
aVremaining
p2506
aVfor your support
p2507
aVnone of
p2508
aVyou can also
p2509
aVserved
p2510
aVnow the
p2511
aVbrought
p2512
aVupgrades
p2513
aVtime with
p2514
aVcomponents
p2515
aVso we can
p2516
aVforce
p2517
aVwe ve been
p2518
aVgoal and
p2519
aVwon be
p2520
aVreflect
p2521
aVtravel
p2522
aVrewards
p2523
aVthe fact that
p2524
aVheart of
p2525
aV32
p2526
aVyour favorite
p2527
aVlife the
p2528
aVmarketing and
p2529
aVof the
p2530
aVintend
p2531
aVtimes
p2532
aVcare of
p2533
aVproduction run
p2534
aVthe game you
p2535
aVconstant
p2536
aVprofile
p2537
aVdescription
p2538
aVwrestling
p2539
aVoffers
p2540
aVthe product
p2541
aVand have been
p2542
aVchild
p2543
aVwith them
p2544
aVwho want
p2545
aVshoes
p2546
aVan amazing
p2547
aVin
p2548
aVmastering
p2549
aVhere we
p2550
aVskin
p2551
aVme that
p2552
aVvirtual
p2553
aVholder
p2554
aVto go
p2555
aVkickstarter we
p2556
aVwant to be
p2557
aVat www
p2558
aVdebut
p2559
aVyou will
p2560
aVthe studio
p2561
aVchinese
p2562
aVterms
p2563
aVis not
p2564
aVsugar
p2565
aVspeakers
p2566
aVgeneral
p2567
aVbuilt in
p2568
aVup and
p2569
aVpaul
p2570
aVwhen he
p2571
aValso have
p2572
aVcampaign
p2573
aVhit
p2574
aVthemes
p2575
aVto continue
p2576
aV00 00
p2577
aVconversation
p2578
aVto choose from
p2579
aVred
p2580
aVoutside of
p2581
aVthe sound
p2582
aVreaching
p2583
aVand over
p2584
aVcompanion
p2585
aVnow and
p2586
aVdonations
p2587
aVelectric
p2588
aVthey re
p2589
aVsupport for
p2590
aVscience
p2591
aVis based
p2592
aVwill take
p2593
aVno
p2594
aVyears to
p2595
aVmusic and
p2596
aVfilming
p2597
aVof photography
p2598
aVhiring
p2599
aVwill also be
p2600
aVthis is where
p2601
aVfile
p2602
aVfilm
p2603
aVfill
p2604
aVthe extra
p2605
aVto try
p2606
aVinstall
p2607
aVthe cover
p2608
aVshare our
p2609
aVyou can use
p2610
aVis used
p2611
aVbrass
p2612
aVsome of my
p2613
aVgame will
p2614
aVwill work
p2615
aVbrings
p2616
aVdistribute
p2617
aVhere for
p2618
aVfor this
p2619
aVsee more
p2620
aVthe ability to
p2621
aVamount
p2622
aVto give you
p2623
aVyour help to
p2624
aVthan the
p2625
aVcostumes
p2626
aVindustrial
p2627
aVsilk
p2628
aVfunds
p2629
aVfabric
p2630
aVdeveloping
p2631
aVcomedy
p2632
aVto that
p2633
aVreal world
p2634
aVand ready
p2635
aVcompact
p2636
aVof new
p2637
aVhappening
p2638
aVengaging
p2639
aVfilled with
p2640
aVstatus
p2641
aVnot to
p2642
aVgoing to
p2643
aValready have
p2644
aVgps
p2645
aVadventures
p2646
aVreal life
p2647
aVstory about
p2648
aVwe make
p2649
aVprint and
p2650
aVglobal
p2651
aVwas not
p2652
aVwhat you
p2653
aVinteractive
p2654
aVour products
p2655
aVcamp
p2656
aVcame
p2657
aVyear of
p2658
aVawesome
p2659
aVassistant
p2660
aVve got
p2661
aVjanuary
p2662
aVthe chance
p2663
aVmap
p2664
aVmay
p2665
aVmax
p2666
aVmac
p2667
aVmad
p2668
aVman
p2669
aVbulk
p2670
aValthough
p2671
aVall
p2672
aVwe have
p2673
aVacross the
p2674
aVif it
p2675
aVriver
p2676
aVbrown
p2677
aVyoutube
p2678
aVcontain
p2679
aVmake our
p2680
aVinstitute
p2681
aVthank
p2682
aVwill be used
p2683
aVlightning
p2684
aVit happen
p2685
aVrisk
p2686
aVrise
p2687
aVand can be
p2688
aVremoved
p2689
aVthe creation
p2690
aVpostcard
p2691
aVnew zealand
p2692
aVfunds to
p2693
aVcould be
p2694
aVsafe
p2695
aVthat
p2696
aVwave
p2697
aVstar
p2698
aVthe early
p2699
aVassist
p2700
aVclip
p2701
aVposted
p2702
aVlive in
p2703
aVyou all
p2704
aVtake look
p2705
aVlaunched
p2706
aVnorthern
p2707
aVbelieve
p2708
aVnumbered
p2709
aVquickly
p2710
aVthat would
p2711
aVraising
p2712
aVthe highest
p2713
aVhope to
p2714
aVwe can
p2715
aVfrom his
p2716
aVto test
p2717
aVcovers
p2718
aVaspect
p2719
aVfurther
p2720
aVmovie
p2721
aVof those
p2722
aVaddress
p2723
aVcertified
p2724
aVall of you
p2725
aVll get
p2726
aVleading
p2727
aVkinds
p2728
aVmyself
p2729
aVsend
p2730
aVsent
p2731
aVthe people
p2732
aVthe page
p2733
aVproject will
p2734
aVstainless
p2735
aVreturned
p2736
aVstory to
p2737
aVdaughter
p2738
aVthink of
p2739
aVthere was
p2740
aVyour support to
p2741
aVlaunch
p2742
aVhoping to
p2743
aVus at
p2744
aVhis own
p2745
aVarmor
p2746
aVunfortunately
p2747
aVall or
p2748
aVall of
p2749
aVyou want
p2750
aVsecond
p2751
aVadjust
p2752
aVhave access
p2753
aVstronger
p2754
aVarea
p2755
aVaren
p2756
aVgetting the
p2757
aVthe prototype
p2758
aVto play
p2759
aVwe can make
p2760
aVmartin
p2761
aVthe option
p2762
aVmail
p2763
aVmain
p2764
aVinto an
p2765
aVof us
p2766
aVconnect
p2767
aVand to
p2768
aVunless
p2769
aVcarbon
p2770
aVwebsite and
p2771
aVaccomplish
p2772
aVmusic
p2773
aVons
p2774
aVof music
p2775
aVplot
p2776
aVwhich has
p2777
aVinstagram
p2778
aVjust one
p2779
aVceo
p2780
aVthe best
p2781
aVuniversal
p2782
aVfounder
p2783
aVfounded
p2784
aVthat you
p2785
aVof one
p2786
aVin time
p2787
aVarticles
p2788
aVupdated
p2789
aVaway from
p2790
aVwent
p2791
aVline of
p2792
aVimpact
p2793
aVpieces of
p2794
aVfor years
p2795
aVgreatly
p2796
aVdue
p2797
aVany questions
p2798
aVjoined
p2799
aVrules
p2800
aVlistening
p2801
aVit will
p2802
aVto kickstarter
p2803
aVportion of
p2804
aVpeople and
p2805
aVbut what
p2806
aVsingle
p2807
aVancient
p2808
aVbooks and
p2809
aVrather than
p2810
aVwhy not
p2811
aVdetermined
p2812
aVranging
p2813
aVwe did
p2814
aVsociety
p2815
aVpaperback
p2816
aVconstruction
p2817
aVthe beginning of
p2818
aVexcited about
p2819
aVuseful
p2820
aVarms
p2821
aVcontributors
p2822
aVfeel free to
p2823
aVsome great
p2824
aVyoga
p2825
aVmagnetic
p2826
aVborn in
p2827
aVheavy
p2828
aVin place
p2829
aVthis and
p2830
aVdungeons
p2831
aVcan wait to
p2832
aVcost of
p2833
aVwill begin
p2834
aVbest
p2835
aVhard to
p2836
aVon and
p2837
aVfor more
p2838
aVmatter
p2839
aVexchange
p2840
aVto increase
p2841
aVfour
p2842
aVrevealed
p2843
aVwe were
p2844
aVdirecting
p2845
aVhelp we can
p2846
aVthe course of
p2847
aVpower
p2848
aVvideo game
p2849
aVfilmmaking
p2850
aVsolutions
p2851
aVbe one
p2852
aVbeautifully
p2853
aVbe sure
p2854
aVlook like
p2855
aVartistic
p2856
aVhas worked
p2857
aVwe feel
p2858
aVcraft
p2859
aVthe main
p2860
aVwill be able
p2861
aVother people
p2862
aVgolden
p2863
aVwe hit
p2864
aVall of your
p2865
aVtracking
p2866
aVclock
p2867
aVprizes
p2868
aVcomic book
p2869
aVlong term
p2870
aVamazing
p2871
aVyour reward
p2872
aVthe development
p2873
aVgalaxy
p2874
aVit works
p2875
aVsetting
p2876
aVdonated
p2877
aVenvironments
p2878
aVoriginal
p2879
aVturning
p2880
aVshell
p2881
aVthree
p2882
aVjim
p2883
aVdid
p2884
aVmade to
p2885
aVrescue
p2886
aVshow you
p2887
aVyou come in
p2888
aVhere and
p2889
aVwho
p2890
aVin los angeles
p2891
aVif this
p2892
aVdirected
p2893
aVyou don
p2894
aVtry
p2895
aVgood
p2896
aVpresented
p2897
aVthe front
p2898
aVmixed
p2899
aValmost
p2900
aVaccessible
p2901
aVreward
p2902
aVfurniture
p2903
aVstone
p2904
aVkill
p2905
aVseparate
p2906
aVinspiration
p2907
aVand we re
p2908
aVdiscover
p2909
aVthe better
p2910
aVand start
p2911
aVuse your
p2912
aValuminum
p2913
aVcloser
p2914
aVclosed
p2915
aVmiles
p2916
aVin the us
p2917
aVpledge to
p2918
aVbelieve in
p2919
aVpull
p2920
aVthe movie
p2921
aVwallets
p2922
aVlucky
p2923
aVname on
p2924
aVhigh
p2925
aVfamilies
p2926
aVsheet
p2927
aVwizard
p2928
aVwe use
p2929
aVremote
p2930
aVthroughout
p2931
aVuse it
p2932
aVpath
p2933
aVwhen it
p2934
aVwho we
p2935
aVyou can get
p2936
aVand hope
p2937
aVin my
p2938
aVthe first
p2939
aVwho are
p2940
aVtale
p2941
aVtall
p2942
aVtalk
p2943
aVstory the
p2944
aVin progress
p2945
aVthe last
p2946
aVhere to
p2947
aVin front of
p2948
aVcontribute to
p2949
aVprogramming
p2950
aVwell as the
p2951
aVthe price
p2952
aVare asking
p2953
aVreceive
p2954
aVhonest
p2955
aVthe support
p2956
aVfollow us
p2957
aVthat it
p2958
aVthat if
p2959
aVthat in
p2960
aVyour home
p2961
aVjoining
p2962
aV2000
p2963
aV2008
p2964
aV2009
p2965
aVto introduce
p2966
aVfor production
p2967
aVcreated the
p2968
aVpossible to
p2969
aVfrom you
p2970
aVto take the
p2971
aVbased on the
p2972
aVuse and
p2973
aVto capture
p2974
aVand what
p2975
aVlater
p2976
aVmaintain
p2977
aVhello
p2978
aVyou guys
p2979
aVthen
p2980
aVthey
p2981
aVbut with
p2982
aVfi
p2983
aVby using
p2984
aVprinting and
p2985
aVoffered
p2986
aVthick
p2987
aVbunch
p2988
aVcan get
p2989
aVforget
p2990
aVability
p2991
aVmight
p2992
aVgenerate
p2993
aVshorts
p2994
aVusually
p2995
aVmany more
p2996
aVto stay
p2997
aVhow does
p2998
aV55
p2999
aVin each
p3000
aVsense
p3001
aVreleases
p3002
aVreleased
p3003
aVbefore it
p3004
aVappropriate
p3005
aVallow
p3006
aVbreak
p3007
aVthe goal
p3008
aVto us
p3009
aVme with
p3010
aVwill also receive
p3011
aVcommitted to
p3012
aVtry to
p3013
aVit ll
p3014
aVlake
p3015
aVthe above
p3016
aVan awesome
p3017
aVpeople in
p3018
aVdesigners
p3019
aVimportantly
p3020
aVhttp
p3021
aVadditional
p3022
aVhimself
p3023
aVpicture
p3024
aVfaster
p3025
aVworkshop
p3026
aVits own
p3027
aVand creative
p3028
aVcan give
p3029
aVthe opportunity to
p3030
aVtheater
p3031
aVto contact
p3032
aVsupporters
p3033
aVof course
p3034
aVpet
p3035
aVpen
p3036
aVfall
p3037
aVcomplex
p3038
aVto all
p3039
aVexhibition
p3040
aVresource
p3041
aVjohnny
p3042
aVhow many
p3043
aVwas in
p3044
aVto allow
p3045
aVand make
p3046
aVit that
p3047
aVon an
p3048
aVthe art
p3049
aVthat means
p3050
aVfor her
p3051
aVpdf
p3052
aVon top of
p3053
aVfavorite
p3054
aVsmile
p3055
aVof how
p3056
aVregardless of
p3057
aVencounter
p3058
aVcorrect
p3059
aVfor example
p3060
aVhopes
p3061
aVfulfillment
p3062
aVguarantee
p3063
aVcharacters
p3064
aVcannot
p3065
aVto fit
p3066
aVwhom
p3067
aVchoice
p3068
aVsaving
p3069
aVworldwide
p3070
aVadditionally
p3071
aVof the year
p3072
aVperspective
p3073
aVthank you to
p3074
aVyou on
p3075
aVlook forward to
p3076
aVlarger
p3077
aVon one
p3078
aVus to
p3079
aVthis was
p3080
aVyou ll need
p3081
aVmake up
p3082
aVcan make
p3083
aVseconds
p3084
aV11
p3085
aVdes
p3086
aVfunding
p3087
aVfor free
p3088
aVthe problem
p3089
aVthat makes
p3090
aVintegrated
p3091
aVis your
p3092
aVhow can
p3093
aVnation
p3094
aVseemed
p3095
aVto open
p3096
aVproduction and
p3097
aVthen we
p3098
aVlow
p3099
aVmany different
p3100
aVhome and
p3101
aVis ready
p3102
aVscreening
p3103
aVbeer
p3104
aVsourced
p3105
aVcosts of
p3106
aVaccessory
p3107
aVages
p3108
aVstory and
p3109
aVpractice
p3110
aVtechnology
p3111
aVyour help we
p3112
aVare in the
p3113
aVto the right
p3114
aVand we want
p3115
aVan artist
p3116
aVround
p3117
aVas he
p3118
aVmovies
p3119
aVspeaking
p3120
aVfor many
p3121
aVtoo much
p3122
aVtoy
p3123
aVstores
p3124
aVdon want
p3125
aVyour name
p3126
aVedit
p3127
aVin this project
p3128
aVin way
p3129
aVmen and
p3130
aVand we need
p3131
aVattach
p3132
aVattack
p3133
aVvinyl
p3134
aVcontinue to
p3135
aVlifetime
p3136
aVin need
p3137
aVvariety of
p3138
aVon the
p3139
aVconsists of
p3140
aVfacility
p3141
aVmany
p3142
aVmeant
p3143
aVaward
p3144
aVdelivered
p3145
aVstories
p3146
aVhundreds
p3147
aVoil
p3148
aVthe audience
p3149
aVand many more
p3150
aVcollaborative
p3151
aVand just
p3152
aVcds
p3153
aVsupports
p3154
aVstay
p3155
aVare the
p3156
aVgorgeous
p3157
aVincreased
p3158
aVsaid
p3159
aVsinging
p3160
aVcast and
p3161
aVproject you
p3162
aVincluding the
p3163
aVcheck out our
p3164
aVfollowed
p3165
aVversion of the
p3166
aVread the
p3167
aVstart
p3168
aVstars
p3169
aVgrew
p3170
aVgrey
p3171
aVdvd
p3172
aVserious
p3173
aVbelieve that
p3174
aVinternational
p3175
aVand build
p3176
aVall over the
p3177
aVinstruments
p3178
aVpositive
p3179
aVwhere you can
p3180
aVprototypes
p3181
aVfight
p3182
aVsize
p3183
aVcentral
p3184
aVbrowser to see
p3185
aVnoticed
p3186
aVretro
p3187
aVpart of our
p3188
aVthomas
p3189
aVback
p3190
aVprofit
p3191
aVwhat it
p3192
aVwhat if
p3193
aVcombat
p3194
aVpost
p3195
aVgame we
p3196
aVyou ll get
p3197
aVaffordable
p3198
aVif we can
p3199
aVhelp to
p3200
aVthe sun
p3201
aVaudiences
p3202
aVstudent
p3203
aVwe already
p3204
aVbackpack
p3205
aVthis story
p3206
aVinstantly
p3207
aVprobably
p3208
aVthe universe
p3209
aVwill see
p3210
aVdefinitely
p3211
aVyou think
p3212
aVstrength
p3213
aVios
p3214
aVadd the
p3215
aVvalley
p3216
aVfriend
p3217
aVit can be
p3218
aVwith
p3219
aVbecome
p3220
aVcombination of
p3221
aVthe success
p3222
aVto use the
p3223
aVmy family
p3224
aVthe most important
p3225
aVtoday
p3226
aVdirection
p3227
aVsoon as
p3228
aVbe released
p3229
aVof the story
p3230
aVyellow
p3231
aVnew
p3232
aVdedicated
p3233
aVis important
p3234
aVrequired
p3235
aVrequires
p3236
aVeffort
p3237
aVcontemporary
p3238
aVnature of
p3239
aVstarting
p3240
aVlooking to
p3241
aVto everyone
p3242
aVonto the
p3243
aVwhether
p3244
aVthe help of
p3245
aVfinest
p3246
aVdon want to
p3247
aVto ship
p3248
aVmission to
p3249
aVthe characters
p3250
aVthe picture
p3251
aVcomes with
p3252
aVphones
p3253
aVbalance
p3254
aVfinally
p3255
aVliving
p3256
aVor even
p3257
aVto new
p3258
aVkeys
p3259
aVnew york city
p3260
aVstands
p3261
aVsince the
p3262
aVshadow
p3263
aVfull
p3264
aVprocess
p3265
aVpeople have
p3266
aVeen
p3267
aVin all
p3268
aVof experience
p3269
aVhttp www
p3270
aVcomposed
p3271
aVcomposer
p3272
aVaka
p3273
aVdiscovery
p3274
aVwe plan
p3275
aVcompetition
p3276
aVthus
p3277
aVwe ll
p3278
aVsteps
p3279
aV27
p3280
aV23
p3281
aVwe also
p3282
aVstudying
p3283
aVis also
p3284
aVplay the
p3285
aVseeking
p3286
aVme in
p3287
aVcore
p3288
aVfee
p3289
aVfew
p3290
aVother
p3291
aVspace and
p3292
aVmy friends
p3293
aVto let
p3294
aVto connect
p3295
aVwill be available
p3296
aVthanks to
p3297
aVyou ll
p3298
aVfoster
p3299
aVlove to
p3300
aVtime of
p3301
aVtwitter
p3302
aVcouple of
p3303
aVgoods
p3304
aVprepared
p3305
aVhave an
p3306
aVso the
p3307
aVknew
p3308
aVeventually
p3309
aVfunding we
p3310
aVthe third
p3311
aVworry
p3312
aVcreator of
p3313
aVthem as
p3314
aVeveryday
p3315
aVrunning
p3316
aVphotograph
p3317
aVlots
p3318
aVfor these
p3319
aVand unique
p3320
aVfood
p3321
aVgoal we will
p3322
aVshowing
p3323
aVideas and
p3324
aVand making
p3325
aVhave some
p3326
aVthat when
p3327
aVnovember
p3328
aVfrom
p3329
aVthe budget
p3330
aVthe show
p3331
aVto fund
p3332
aVtake
p3333
aVact
p3334
aVput
p3335
aVcloud
p3336
aVexhibit
p3337
aVto bring
p3338
aVapart
p3339
aVto be part
p3340
aVincome
p3341
aVfirst to
p3342
aVeasier
p3343
aVforward
p3344
aVthat he
p3345
aV2015
p3346
aV2014
p3347
aV2011
p3348
aV2010
p3349
aV2012
p3350
aVforever
p3351
aVmonths of
p3352
aVvaluable
p3353
aVtoys
p3354
aVpattern
p3355
aVmade by
p3356
aVthat was
p3357
aVonly
p3358
aVmember of
p3359
aVsocial
p3360
aVetc
p3361
aVdoes
p3362
aVword
p3363
aVwork
p3364
aVworn
p3365
aVphase
p3366
aVto begin
p3367
aVwe have already
p3368
aVon how
p3369
aVviolence
p3370
aVfine
p3371
aVfind
p3372
aVlines
p3373
aVhtml5
p3374
aVlaptop
p3375
aVconstructed
p3376
aVreplace
p3377
aVyou come
p3378
aVlearned
p3379
aVexperimental
p3380
aVinjection
p3381
aVdisplay
p3382
aVand provide
p3383
aVor other
p3384
aVamong
p3385
aVexpert
p3386
aVhonor
p3387
aVhappens
p3388
aVfantasy
p3389
aVensure
p3390
aVll need
p3391
aVschool of
p3392
aVsort of
p3393
aVto save
p3394
aVpacks
p3395
aVright to
p3396
aVwe will also
p3397
aVwith the world
p3398
aVshare with
p3399
aVafter
p3400
aVkickstarter campaign
p3401
aVyou can help
p3402
aVto deliver
p3403
aVtasks
p3404
aVto have
p3405
aVdrawing
p3406
aVghost
p3407
aVcollected
p3408
aVof the campaign
p3409
aVcrafting
p3410
aVthe artists
p3411
aVamazon
p3412
aVinteract with
p3413
aVall ages
p3414
aVmore to
p3415
aVquite
p3416
aVgifts
p3417
aVtrade
p3418
aVpieces
p3419
aVquality and
p3420
aVlike it
p3421
aVmillions of
p3422
aVmom
p3423
aVmanufactured
p3424
aVmanufacturer
p3425
aVhave been working
p3426
aVon the market
p3427
aVthe the
p3428
aVare
p3429
aVcalled
p3430
aVresearch
p3431
aVon their
p3432
aVstill
p3433
aVincluding
p3434
aVspecial
p3435
aVmystery
p3436
aVpoint
p3437
aVthe digital
p3438
aVthis will be
p3439
aVre not
p3440
aVscore
p3441
aVpeople
p3442
aVstudied
p3443
aVstudies
p3444
aVafford
p3445
aVrequests
p3446
aVpatent
p3447
aVstuff
p3448
aVstop
p3449
aVarts
p3450
aVblood
p3451
aVto some
p3452
aVare very
p3453
aVthe role of
p3454
aVbe seen
p3455
aVbatteries
p3456
aVfoundation
p3457
aVconstantly
p3458
aVhad the
p3459
aVfund the
p3460
aVlegendary
p3461
aVthan just
p3462
aVset in
p3463
aVdeep
p3464
aVin some
p3465
aVyou and
p3466
aVwill feature
p3467
aVdecided to
p3468
aVreal time
p3469
aVhero
p3470
aVhere
p3471
aVthe fun
p3472
aVand receive
p3473
aVthis content
p3474
aVcomic
p3475
aVaward winning
p3476
aVprinted on
p3477
aVthe american
p3478
aVempire
p3479
aVencourage
p3480
aVdoes it
p3481
aV000 to
p3482
aVthis we
p3483
aVpage and
p3484
aVusing
p3485
aV3d
p3486
aVof different
p3487
aVearn
p3488
aVthis page
p3489
aVcolors
p3490
aVhas always
p3491
aVtaste
p3492
aVon kickstarter
p3493
aVand others
p3494
aVand shipping
p3495
aVdust
p3496
aVstudy
p3497
aVbase
p3498
aVexcited to
p3499
aVback and
p3500
aVto gain
p3501
aVcarry
p3502
aVdesign the
p3503
aVcan use
p3504
aVevents
p3505
aVmission
p3506
aVand back
p3507
aVto receive
p3508
aVand its
p3509
aVthe entire
p3510
aVso that
p3511
aVface
p3512
aVfact
p3513
aVadjustable
p3514
aVneeds to be
p3515
aVwhat they
p3516
aVdown and
p3517
aVnote that
p3518
aVto all of
p3519
aVfeel free
p3520
aVbirthday
p3521
aVas it
p3522
aVunlike
p3523
aVspanish
p3524
aVjust as
p3525
aVhad been
p3526
aVwearing
p3527
aVattached
p3528
aVis very
p3529
aVitself
p3530
aVplayers
p3531
aVto make it
p3532
aVwill make
p3533
aVthe amount of
p3534
aVfeel like
p3535
aVcards are
p3536
aVallow you
p3537
aVyour friends
p3538
aVproduct that
p3539
aVjob
p3540
aVjoe
p3541
aVand there
p3542
aVneed for
p3543
aVhope
p3544
aVit and
p3545
aVwant to make
p3546
aV2013
p3547
aVto share
p3548
aVhead
p3549
aVheat
p3550
aVhear
p3551
aVonly be
p3552
aVrings
p3553
aVto more
p3554
aVboard
p3555
aVsupport us
p3556
aVover the years
p3557
aVcredit
p3558
aVand in the
p3559
aVfor me
p3560
aVfor my
p3561
aVasked
p3562
aVwanted
p3563
aVhave to be
p3564
aVseason
p3565
aVgive the
p3566
aVour story
p3567
aVhas to
p3568
aVcooking
p3569
aVcast and crew
p3570
aVthis dream
p3571
aVbaby
p3572
aVdirectly to
p3573
aVsound
p3574
aVwe made
p3575
aVport
p3576
aVgoal to
p3577
aVgame to
p3578
aVproven
p3579
aVthe community
p3580
aVhours
p3581
aVto help
p3582
aVre going to
p3583
aVwill use
p3584
aVsurprise
p3585
aVto work on
p3586
aVdo the
p3587
aVfun
p3588
aVputting
p3589
aVholiday
p3590
aVcombining
p3591
aVweapons
p3592
aVuse
p3593
aVusd
p3594
aVusb
p3595
aVusa
p3596
aVshort film
p3597
aVon all
p3598
aVscratch
p3599
aVelement
p3600
aVink
p3601
aVinc
p3602
aVthe rewards
p3603
aVit time to
p3604
aVwill keep
p3605
aVwhich
p3606
aVmike
p3607
aVvia
p3608
aVdegree in
p3609
aVthe name
p3610
aVanswer
p3611
aVshort films
p3612
aVaddition to the
p3613
aVrealistic
p3614
aVout for
p3615
aVwill go towards
p3616
aVvideo
p3617
aVis to create
p3618
aVtotal of
p3619
aVcontrolled
p3620
aVour community
p3621
aVcreate the
p3622
aVpassionate
p3623
aVwant to
p3624
aVgave
p3625
aVhim to
p3626
aVcosts
p3627
aVlot of
p3628
aVchange
p3629
aVuse this
p3630
aVsales
p3631
aVtogether with
p3632
aVpay for the
p3633
aVdevelopment and
p3634
aVis
p3635
aVit
p3636
aVii
p3637
aVid
p3638
aVif
p3639
aVmy kickstarter
p3640
aVcaught
p3641
aVlayout
p3642
aVwrap
p3643
aVinside
p3644
aVher own
p3645
aVopen
p3646
aVchosen
p3647
aVlimited edition
p3648
aVminimal
p3649
aVwebsite
p3650
aVcomponent
p3651
aVmy wife
p3652
aVsize and
p3653
aVconsider
p3654
aVthe reward
p3655
aV80
p3656
aVfilm the
p3657
aVworking with
p3658
aVtouring
p3659
aVtypical
p3660
aVyou
p3661
aVlinux
p3662
aVinfo
p3663
aVdonors
p3664
aVfollows
p3665
aVaccess to the
p3666
aVhave all
p3667
aVyork
p3668
aVthe list
p3669
aVcost
p3670
aVto you
p3671
aVyou would
p3672
aVnecessary
p3673
aVthe comic
p3674
aVhope that
p3675
aVrestaurant
p3676
aVand his
p3677
aVthe heart of
p3678
aVto those
p3679
aVwith two
p3680
aVthe family
p3681
aVto do
p3682
aVkickstarter to
p3683
aVeveryone
p3684
aVavailable on
p3685
aVthe basic
p3686
aVchief
p3687
aVand running
p3688
aVthe unique
p3689
aVendless
p3690
aVset out
p3691
aVmodern
p3692
aVremove
p3693
aVabout
p3694
aVwe decided to
p3695
aVsuccessfully
p3696
aVname of
p3697
aVthe following
p3698
aVhe can
p3699
aVyou will also
p3700
aVto one
p3701
aVtheatre
p3702
aVthe water
p3703
aVvisiting
p3704
aVbehind the
p3705
aVopportunities
p3706
aVel
p3707
aVep
p3708
aVbeen working on
p3709
aVbegin to
p3710
aVplan to
p3711
aVfirst of
p3712
aVbattle
p3713
aVsending
p3714
aVchallenges
p3715
aVslide
p3716
aVwe decided
p3717
aVone
p3718
aV5000
p3719
aVthe year
p3720
aVaround the
p3721
aVthat why we
p3722
aVused
p3723
aVuses
p3724
aVuser
p3725
aVdownload
p3726
aVproject is
p3727
aVproject in
p3728
aVuntil the
p3729
aVas you
p3730
aVbut it
p3731
aVbut if
p3732
aVsupport
p3733
aVabout the
p3734
aVthe truth
p3735
aVtried to
p3736
aVdiego
p3737
aVdecided
p3738
aVwill bring
p3739
aVgallery
p3740
aVmay have
p3741
aVwe are also
p3742
aVladies
p3743
aVthe recording
p3744
aVabout it
p3745
aVto contribute
p3746
aVfilms
p3747
aVtruck
p3748
aVis my
p3749
aVdeck of
p3750
aVdigital copy of
p3751
aVteach
p3752
aVeffect
p3753
aVoutdoor
p3754
aVhelp the
p3755
aVgeorge
p3756
aVsituation
p3757
aVrecycled
p3758
aVdiverse
p3759
aVwhile you
p3760
aVin every
p3761
aVthe good
p3762
aVserving
p3763
aVspread the word
p3764
aVhorror
p3765
aV800
p3766
aVsheets
p3767
aVwith my
p3768
aVwith me
p3769
aVfemale
p3770
aVthat allows
p3771
aVeverything from
p3772
aVincredible
p3773
aVincredibly
p3774
aVarcade
p3775
aVbetter than
p3776
aVat our
p3777
aVis one of
p3778
aVsee it
p3779
aVsee in
p3780
aVpain
p3781
aVpaid
p3782
aVpair
p3783
aVmade the
p3784
aVan extra
p3785
aVshoot
p3786
aVinventory
p3787
aVthey will be
p3788
aVshare it
p3789
aVabilities
p3790
aVfast
p3791
aVenjoyed
p3792
aVpeter
p3793
aVjack
p3794
aVraspberry pi
p3795
aValso receive
p3796
aVfellow
p3797
aVlike this
p3798
aVsays
p3799
aVthe core
p3800
aV20 years
p3801
aVin the process
p3802
aVrest of the
p3803
aV35
p3804
aVgratitude
p3805
aVteacher
p3806
aVtrailer
p3807
aVevening
p3808
aVthe quality
p3809
aVit doesn
p3810
aVrough
p3811
aVkevin
p3812
aVplaying cards
p3813
aVand design
p3814
aVdirectors
p3815
aVlittle more
p3816
aVpeople are
p3817
aVcreations
p3818
aVfootage
p3819
aVfunction
p3820
aVgraduated
p3821
aVtape
p3822
aVwhich will be
p3823
aVthe public
p3824
aVrun
p3825
aVcthulhu
p3826
aVquantities
p3827
aVdo is
p3828
aVdo it
p3829
aVrepresent
p3830
aVnever been
p3831
aVsit
p3832
aVenter
p3833
aVpaying
p3834
aVwork as
p3835
aVraces
p3836
aVorganizations
p3837
aVexperienced
p3838
aVexperiences
p3839
aVor in
p3840
aVthem with
p3841
aVthe game and
p3842
aVcommon
p3843
aVrandom
p3844
aVboards
p3845
aVon this
p3846
aVsix
p3847
aVsee this content
p3848
aVease
p3849
aVeasy
p3850
aVeast
p3851
aVtalents
p3852
aVslow
p3853
aVbe great
p3854
aVthe things
p3855
aVsubmit
p3856
aVcharity
p3857
aVcame to
p3858
aVappearance
p3859
aVpresence
p3860
aVwhat are
p3861
aVreach
p3862
aVbars
p3863
aVbare
p3864
aVoriginally
p3865
aVtheir lives
p3866
aVprior
p3867
aVroots
p3868
aVfacebook com
p3869
aVmeans to
p3870
aVmissing
p3871
aVfor both
p3872
aVpurpose of
p3873
aVbut the
p3874
aVthe box
p3875
aVwe really
p3876
aVlevel
p3877
aVspot
p3878
aVheads
p3879
aVdavid
p3880
aVcommitment
p3881
aVpick up
p3882
aVobjective
p3883
aVadd to
p3884
aVto do so
p3885
aVbeen
p3886
aVmyself and
p3887
aVyour support we
p3888
aVtv
p3889
aVto
p3890
aVwork and
p3891
aVto life
p3892
aVillustrations
p3893
aVtopic
p3894
aVadvice
p3895
aVletting
p3896
aV300
p3897
aVto avoid
p3898
aVnow you
p3899
aVexpenses
p3900
aVchapter
p3901
aVcommunities
p3902
aVright
p3903
aVaside
p3904
aVmale
p3905
aVand our
p3906
aVbrewing
p3907
aVwhy kickstarter
p3908
aVshe has
p3909
aVand is
p3910
aVand it
p3911
aVand if
p3912
aVand in
p3913
aVclub
p3914
aVedited
p3915
aVyou feel
p3916
aVbeauty of
p3917
aVhard
p3918
aVtiers
p3919
aVlet us
p3920
aVkickstarter and
p3921
aVwhich was
p3922
aVsources
p3923
aVbe made
p3924
aVthere is
p3925
aValong with the
p3926
aVclasses
p3927
aVyou also
p3928
aVwhich means
p3929
aVcases
p3930
aVsupport to
p3931
aVof your choice
p3932
aVresponsible
p3933
aVthe ability
p3934
aVhappy
p3935
aVcontent play 00
p3936
aVway of
p3937
aVremember
p3938
aVdoesn
p3939
aVthe market
p3940
aVfunctionality
p3941
aVattention to
p3942
aVin new
p3943
aVagainst the
p3944
aVtooling
p3945
aVbottom of
p3946
aVfor all
p3947
aVitem
p3948
aVmean
p3949
aVused in
p3950
aVnarrative
p3951
aVsupport and
p3952
aVavailable in
p3953
aVcertain
p3954
aVoh
p3955
aVgarage
p3956
aVsteam
p3957
aVexactly
p3958
aVwinner
p3959
aVstages
p3960
aVdoctor
p3961
aVhouse
p3962
aVvehicles
p3963
aVoption
p3964
aVengineers
p3965
aVlifestyle
p3966
aVlayers
p3967
aVto get this
p3968
aVhtml5 capable browser
p3969
aVbeta
p3970
aVtalent
p3971
aVschool
p3972
aVversion
p3973
aVfear
p3974
aVwill receive the
p3975
aVis how
p3976
aVwants to
p3977
aVcrafted
p3978
aVwhat will
p3979
aVand use
p3980
aVdirected by
p3981
aVthat could
p3982
aVform
p3983
aVinto our
p3984
aVthis album
p3985
aVacademy
p3986
aVthat the
p3987
aVlogo
p3988
aVand the
p3989
aVfreedom
p3990
aVcan wait
p3991
aVwork together
p3992
aVqueen
p3993
aVmatch
p3994
aVgive you
p3995
aVdon have to
p3996
aVan album
p3997
aVelite
p3998
aVmore than
p3999
aV10 000
p4000
aVtowards the
p4001
aVleather
p4002
aVnon profit
p4003
aVskills
p4004
aVgrade
p4005
aVat your
p4006
aVdrama
p4007
aVthe kickstarter
p4008
aVfor your
p4009
aVsurf
p4010
aVproject the
p4011
aVchain
p4012
aVexact
p4013
aVonce the
p4014
aVsauce
p4015
aVtie
p4016
aVcould
p4017
aVyour phone
p4018
aVto be able
p4019
aVadvertising
p4020
aVninja
p4021
aVautomatically
p4022
aVwonder
p4023
aVhome to
p4024
aVbe very
p4025
aVmeant to
p4026
aVpolished
p4027
aVhelp us
p4028
aVad
p4029
aVai
p4030
aVam
p4031
aVan
p4032
aVas
p4033
aVat
p4034
aVpolice
p4035
aVfocusing
p4036
aVfund
p4037
aVsecure
p4038
aVbook is
p4039
aVgive us
p4040
aVstorage
p4041
aVeco
p4042
aVexpansion
p4043
aVin any
p4044
aVfilm will
p4045
aVvisitors
p4046
aVincluded in the
p4047
aVenemy
p4048
aVour project
p4049
aVwe may
p4050
aVfor over
p4051
aVcompletely
p4052
aVsubject
p4053
aV00
p4054
aVpreview
p4055
aVurban
p4056
aVwear
p4057
aVtrust
p4058
aVme on
p4059
aVback in
p4060
aVis only
p4061
aVtired
p4062
aVfloor
p4063
aVwith that
p4064
aVbetween the
p4065
aVbring you
p4066
aVlandscape
p4067
aVraise
p4068
aVthink about
p4069
aVit is not
p4070
aVefforts
p4071
aVsenior
p4072
aVcan easily
p4073
aVepisodes
p4074
aVbecause we
p4075
aVsimilar to
p4076
aVappreciate
p4077
aVmusical
p4078
aVfoam
p4079
aVachieve
p4080
aVthem on
p4081
aVour new
p4082
aVwith the help
p4083
aVanimation
p4084
aVopen to
p4085
aVlove
p4086
aVto the public
p4087
aVde
p4088
aVveteran
p4089
aVis something
p4090
aVin case
p4091
aValternate
p4092
aVand for
p4093
aVhave never
p4094
aVchanging
p4095
aVtrying to
p4096
aVthe amount
p4097
aVleave
p4098
aVinterested in
p4099
aVthe two
p4100
aVperform
p4101
aVthe next
p4102
aVthe center
p4103
aVreader
p4104
aVto experience
p4105
aVanyone
p4106
aVbe using
p4107
aVamount of
p4108
aVclass
p4109
aVunits
p4110
aVmusicians
p4111
aVthey ve
p4112
aVsci fi
p4113
aVto record
p4114
aVproducts and
p4115
aVworking in
p4116
aVburning
p4117
aVthe first time
p4118
aVhttps
p4119
aVtitle
p4120
aVhit the
p4121
aVas you can
p4122
aVconnected
p4123
aVsigned
p4124
aVlights
p4125
aVcompleting
p4126
aVcalifornia
p4127
aVbig
p4128
aVdriving
p4129
aVbrother
p4130
aVbunch of
p4131
aVproof
p4132
aVsculpture
p4133
aVera
p4134
aVdogs
p4135
aVzealand
p4136
aVprograms
p4137
aV10 years
p4138
aVhigh school
p4139
aVto carry
p4140
aVsince
p4141
aVwere
p4142
aVfiles
p4143
aVis no
p4144
aVyou an
p4145
aVyou as
p4146
aVlicense
p4147
aVmemories
p4148
aVdrink
p4149
aVpersonality
p4150
aVwhose
p4151
aVagainst
p4152
aVfor helping
p4153
aVdeliver
p4154
aVhave to
p4155
aVeach
p4156
aVneed your
p4157
aVengine
p4158
aVis for
p4159
aVworlds
p4160
aVand are
p4161
aVgoing
p4162
aVcomplete
p4163
aVwith no
p4164
aVstylish
p4165
aVintend to
p4166
aVit in
p4167
aVit it
p4168
aVthis kickstarter project
p4169
aVshopping
p4170
aVsong
p4171
aVchallenging
p4172
aVback the
p4173
aVto what
p4174
aVrealized
p4175
aVappreciated
p4176
aVshipping and
p4177
aVmoney we
p4178
aVfarm
p4179
aVthe university of
p4180
aVanyone who
p4181
aVapp
p4182
aVdifficult
p4183
aV250
p4184
aVbeen able to
p4185
aVway you
p4186
aVscience fiction
p4187
aVthat this
p4188
aVbut also
p4189
aVthe script
p4190
aVto live
p4191
aVgame you
p4192
aVyoung
p4193
aVsketches
p4194
aVwars
p4195
aVwarm
p4196
aVour team
p4197
aVproject we
p4198
aVthis project and
p4199
aVproduction of the
p4200
aVin the video
p4201
aVinterface
p4202
aVgame in
p4203
aVmuch for
p4204
aVpower to
p4205
aVwrite
p4206
aVdesire to
p4207
aVvideos
p4208
aVactive
p4209
aVin the same
p4210
aVbrand
p4211
aVtime and
p4212
aVminute
p4213
aVare some
p4214
aVand create
p4215
aVof the film
p4216
aVillustrator
p4217
aVonce again
p4218
aVentire
p4219
aVgoes
p4220
aVthe end of
p4221
aVwireless
p4222
aVgaming
p4223
aVpart
p4224
aVmold
p4225
aValso the
p4226
aVcan choose
p4227
aVprocessing
p4228
aVshe
p4229
aVof money
p4230
aVgod
p4231
aVgot
p4232
aVdrop
p4233
aVrecord
p4234
aVcame up
p4235
aVready
p4236
aVfeatures
p4237
aVfeatured
p4238
aVthe series
p4239
aVwho can
p4240
aVordered
p4241
aVprint
p4242
aVin game
p4243
aVbasically
p4244
aVmodes
p4245
aVmeet our
p4246
aVstickers
p4247
aVbuilding
p4248
aVfather
p4249
aVmoney for
p4250
aVdowntown
p4251
aVaround the world
p4252
aVlibraries
p4253
aVsponsor
p4254
aVinspired by
p4255
aVpromotional
p4256
aVof the first
p4257
aVabsolutely
p4258
aVrental
p4259
aVwithout
p4260
aVwifi
p4261
aValien
p4262
aVstruggles
p4263
aVangeles
p4264
aVpackages
p4265
aVhands on
p4266
aVhands of
p4267
aVprecision
p4268
aVthe door
p4269
aVprices
p4270
aVle
p4271
aVla
p4272
aVll
p4273
aVthat people
p4274
aVand he
p4275
aVcalled the
p4276
aVdesired
p4277
aVgrateful
p4278
aVit all
p4279
aVyou need to
p4280
aVwho is
p4281
aVin the world
p4282
aVfinished
p4283
aVcreating
p4284
aVcapital
p4285
aVtraining
p4286
aVwhile we
p4287
aVsupport we
p4288
aVmost important
p4289
aVsharing
p4290
aVlimit
p4291
aVcalling
p4292
aVmake an
p4293
aVdoing this
p4294
aVoff the ground
p4295
aVthanks
p4296
aVshared
p4297
aVat time
p4298
aVhave our
p4299
aVhave
p4300
aVtaking the
p4301
aVto shoot
p4302
aVhobby
p4303
aVball
p4304
aVare few
p4305
aVknown
p4306
aVbe more
p4307
aVbreaking
p4308
aVkickstarter will
p4309
aVchocolate
p4310
aVchange the
p4311
aVthe opportunity
p4312
aVcastle
p4313
aVof what
p4314
aVinterview
p4315
aVit time
p4316
aVup to
p4317
aVwe are offering
p4318
aVchildhood
p4319
aVproduced
p4320
aVfor the past
p4321
aVcover art
p4322
aVearly
p4323
aVdialogue
p4324
aVplease
p4325
aVbody
p4326
aValive
p4327
aVworld
p4328
aVsurvey
p4329
aVwe started
p4330
aVon this project
p4331
aVso far
p4332
aVplanet
p4333
aVinterest in
p4334
aVblue
p4335
aVneeds to
p4336
aVdegree
p4337
aVour
p4338
aVout
p4339
aVrewards to
p4340
aVway we
p4341
aVbut there
p4342
aVtube
p4343
aVis complete
p4344
aVrobert
p4345
aVthe video
p4346
aVtwenty
p4347
aVgiving
p4348
aVlooked
p4349
aVof love
p4350
aVdigital copy
p4351
aVis where
p4352
aVlos angeles
p4353
aVto promote
p4354
aVsports
p4355
aVdays of
p4356
aVmagical
p4357
aVessential
p4358
aVengland
p4359
aVyears and
p4360
aVworld of
p4361
aVsing
p4362
aVgear
p4363
aVtext
p4364
aVcycle
p4365
aVwill cover
p4366
aVwaiting
p4367
aVas soon
p4368
aVto help me
p4369
aVat this
p4370
aVleague
p4371
aVlinks
p4372
aVingredients
p4373
aVis this
p4374
aVthat were
p4375
aVintroduced
p4376
aVhave any
p4377
aVto our
p4378
aVocean
p4379
aVchose
p4380
aVyour hand
p4381
aVhave also
p4382
aVminor
p4383
aVand you
p4384
aVpainted
p4385
aVof my life
p4386
aVwill go to
p4387
aVhas been
p4388
aVbeen in
p4389
aVactual
p4390
aVyou will get
p4391
aVfor some
p4392
aVin addition to
p4393
aVsome of the
p4394
aVthe new
p4395
aVpencil
p4396
aVintroduce
p4397
aVshould be
p4398
aVin it
p4399
aVwill be an
p4400
aVlikely
p4401
aVsent to
p4402
aVgoal we
p4403
aVplay with
p4404
aVwedding
p4405
aVunderstanding of
p4406
aVcreature
p4407
aVappreciation
p4408
aVthe power of
p4409
aVwe still
p4410
aVll have
p4411
aVof art
p4412
aVthat my
p4413
aVwill create
p4414
aVbright
p4415
aVand love
p4416
aVitems
p4417
aVyears in
p4418
aVare working
p4419
aVyou can see
p4420
aVpages
p4421
aVtechnologies
p4422
aVare in
p4423
aVus in
p4424
aVtarget
p4425
aVthan
p4426
aVthe side
p4427
aVthe space
p4428
aVdangerous
p4429
aVadvanced
p4430
aVwe do not
p4431
aVmessage
p4432
aVto get the
p4433
aVthat with
p4434
aVfreelance
p4435
aVare able
p4436
aVwest
p4437
aVis on
p4438
aVyork city
p4439
aVsplit
p4440
aVstreets
p4441
aVspecial thanks
p4442
aVtelling
p4443
aVmeet
p4444
aVleaves
p4445
aVspaces
p4446
aVtaught
p4447
aVabout how
p4448
aVdo that
p4449
aVin that
p4450
aVbeautiful
p4451
aVcurrently in
p4452
aVrain
p4453
aVlook at the
p4454
aVdrew
p4455
aVreference
p4456
aVaccording
p4457
aVestablish
p4458
aVeasy to use
p4459
aVinclude the
p4460
aVsucceed
p4461
aVtable
p4462
aVdual
p4463
aVaspect of
p4464
aVunlocked
p4465
aVbeach
p4466
aVwe
p4467
aVwelcome
p4468
aVappear
p4469
aVwhat we
p4470
aVsoon
p4471
aVsecrets
p4472
aVcommercial
p4473
aVwanting
p4474
aVtheir own
p4475
aVtrain
p4476
aVstyle of
p4477
aVrelevant
p4478
aVyou re not
p4479
aVthe image
p4480
aVhow
p4481
aVhot
p4482
aVhop
p4483
aVthings
p4484
aVorder
p4485
aVto design
p4486
aVphotographer
p4487
aVreality
p4488
aVto enjoy
p4489
aVlens
p4490
aVextreme
p4491
aVpie
p4492
aVstick
p4493
aVthe back of
p4494
aVengineer
p4495
aVring
p4496
aVpart of this
p4497
aVpartner
p4498
aVto do this
p4499
aVof my
p4500
aVneed
p4501
aVin the film
p4502
aVskill
p4503
aVmakers
p4504
aVwasn
p4505
aVare ready
p4506
aVbird
p4507
aVwe reach our
p4508
aVof it
p4509
aVcompletion
p4510
aVpoints
p4511
aVspecifications
p4512
aVwe like
p4513
aVwe need
p4514
aVwe re going
p4515
aVissues
p4516
aVperks
p4517
aVebook
p4518
aVcollective
p4519
aVparts of
p4520
aVassociated with
p4521
aVlevel of
p4522
aVand enjoy
p4523
aVvideo games
p4524
aVis made
p4525
aVnothing
p4526
aVfront
p4527
aVto protect
p4528
aVwork on
p4529
aVwork of
p4530
aVyou so
p4531
aV2nd
p4532
aVtier
p4533
aVties
p4534
aVthis book
p4535
aVversion of
p4536
aVname and
p4537
aVfor new
p4538
aVgrown
p4539
aVcables
p4540
aVmountain
p4541
aVdan
p4542
aVday
p4543
aVtabletop
p4544
aVwill allow
p4545
aV000 we
p4546
aVthe artist
p4547
aVsky
p4548
aVof their
p4549
aVand family
p4550
aVturns
p4551
aVthe arts
p4552
aVknown for
p4553
aVof which
p4554
aVsense of
p4555
aVis going to
p4556
aVmultiplayer
p4557
aVmicro
p4558
aVbacker
p4559
aVbacked
p4560
aVexpensive
p4561
aVfootball
p4562
aVand no
p4563
aVflight
p4564
aVyour life
p4565
aVthe money will
p4566
aVwhat do
p4567
aVand high
p4568
aVrecorded
p4569
aVahead
p4570
aVhours of
p4571
aVbottles
p4572
aVgift
p4573
aVto put
p4574
aVwill have to
p4575
aVwe love
p4576
aVat an
p4577
aVthis project will
p4578
aVand bring
p4579
aVwhen the
p4580
aVframes
p4581
aVstory of
p4582
aVbest to
p4583
aVthe day
p4584
aVwe just
p4585
aVelements
p4586
aVboth
p4587
aVthe various
p4588
aVeven
p4589
aVever
p4590
aVdesigns and
p4591
aVsecured
p4592
aVspace for
p4593
aVawards
p4594
aVnext
p4595
aVand or
p4596
aVand on
p4597
aVand of
p4598
aVsometimes
p4599
aVoffer
p4600
aVlived
p4601
aVlives
p4602
aVpopular
p4603
aVmy first
p4604
aVweekend
p4605
aVpart in
p4606
aVthat have
p4607
aVthe physical
p4608
aVorganized
p4609
aVpoint of
p4610
aVit comes
p4611
aVweekly
p4612
aVyou were
p4613
aVdo
p4614
aVdr
p4615
aVsecurity
p4616
aVthe real
p4617
aVarticle
p4618
aVdocument
p4619
aVis one
p4620
aVandroid
p4621
aVwon
p4622
aVcreation
p4623
aVcrazy
p4624
aVpizza
p4625
aVone of our
p4626
aVspent
p4627
aVspend
p4628
aVjoin
p4629
aVit has
p4630
aVhealth
p4631
aVto make the
p4632
aVbrilliant
p4633
aVwhich we
p4634
aVout our
p4635
aVof some
p4636
aVgrab
p4637
aVdry
p4638
aVvery much
p4639
aVthe results
p4640
aVbe printed
p4641
aVtime to
p4642
aV30
p4643
aV36
p4644
aVmulti
p4645
aVas much as
p4646
aVfor those who
p4647
aVfinding
p4648
aVpush
p4649
aVmassive
p4650
aVthe area
p4651
aVneeded
p4652
aVfor any
p4653
aVreceive an
p4654
aVunderstanding
p4655
aVbook that
p4656
aVnow we
p4657
aVwriting
p4658
aVand we are
p4659
aVbe used for
p4660
aVinto
p4661
aVpoor
p4662
aVpool
p4663
aVto control
p4664
aVcity of
p4665
aVit on
p4666
aVstory
p4667
aVstorm
p4668
aVstore
p4669
aVchapters
p4670
aVin making
p4671
aVvote
p4672
aVactions
p4673
aVlaser
p4674
aVcosts for
p4675
aVspells
p4676
aVis the first
p4677
aVups
p4678
aVwww facebook com
p4679
aVestimated
p4680
aVimprove
p4681
aVice
p4682
aVcommunicate
p4683
aVassociated
p4684
aVsomething
p4685
aVwill do
p4686
aVpledges
p4687
aVyou might
p4688
aVmini
p4689
aVmind
p4690
aVmine
p4691
aVavailable as
p4692
aVcopies of the
p4693
aVhumanity
p4694
aVand your
p4695
aVbe sure to
p4696
aVupon
p4697
aVstyle and
p4698
aVto make
p4699
aVable
p4700
aVpurchase
p4701
aVtitles
p4702
aVmaking the
p4703
aVscene
p4704
aVaudio
p4705
aVallow us to
p4706
aVof the book
p4707
aVas result
p4708
aVentertainment
p4709
aVseven
p4710
aVfacebook
p4711
aVand this
p4712
aVget the
p4713
aVit will also
p4714
aVhe was
p4715
aVfor the
p4716
aVof all the
p4717
aVstage
p4718
aVcount
p4719
aVshe is
p4720
aVof three
p4721
aVsolution
p4722
aVtype
p4723
aVyou can be
p4724
aVclassic
p4725
aVmembers of
p4726
aVspreading
p4727
aVphoto
p4728
aVit into
p4729
aVto get it
p4730
aVmade of
p4731
aVadded to
p4732
aVlisten
p4733
aVmonsters
p4734
aVmixing
p4735
aVpaintings
p4736
aVeat
p4737
aVopportunity
p4738
aVmaterials
p4739
aVfor it
p4740
aVtop
p4741
aVtoo
p4742
aVcode
p4743
aVin the
p4744
aVjoy
p4745
aVtheir
p4746
aVinch
p4747
aVhow you
p4748
aVyou get to
p4749
aVfulfill
p4750
aVadding
p4751
aVupdates
p4752
aVstock
p4753
aVmaterials and
p4754
aVone of the
p4755
aVand with
p4756
aVmay not
p4757
aVleader
p4758
aVfit
p4759
aVfunding goal
p4760
aVsovy
p4761
aVthe board
p4762
aVfull color
p4763
aVallows for
p4764
aVhaving to
p4765
aVruns
p4766
aVchair
p4767
aVmeans that
p4768
aVcamera
p4769
aVkeep you
p4770
aVnot have
p4771
aVdeserve
p4772
aVwas the
p4773
aVyou see
p4774
aVamong the
p4775
aVkickstarter is
p4776
aVprinters
p4777
aVdrum
p4778
aVsupporting
p4779
aVwindow
p4780
aVprepare
p4781
aVfoot
p4782
aVaddition
p4783
aVafrica
p4784
aVcalendar
p4785
aVbook in
p4786
aVare more
p4787
aVbuttons
p4788
aVcars
p4789
aVcard
p4790
aVcare
p4791
aVthat what
p4792
aVendeavor
p4793
aVproblems
p4794
aVbusy
p4795
aVnote
p4796
aVbook will
p4797
aVcustom
p4798
aVago
p4799
aVage
p4800
aVhere is
p4801
aVhere in
p4802
aVand help
p4803
aVtechnique
p4804
aVoffice
p4805
aVplan is
p4806
aVsurvival
p4807
aVget our
p4808
aVinternet
p4809
aVin your
p4810
aVwe raise
p4811
aVclients
p4812
aVeducational
p4813
aVall about
p4814
aVlike
p4815
aVguests
p4816
aVhelp of
p4817
aVwhy we need
p4818
aVprint of
p4819
aVouya
p4820
aVto see the
p4821
aValways
p4822
aVskills and
p4823
aVaccess
p4824
aVlike the
p4825
aVinterested
p4826
aVthat is
p4827
aVassemble
p4828
aVthis is not
p4829
aVto the
p4830
aVco founder
p4831
aVdesire
p4832
aVcity
p4833
aVultra
p4834
aVthe industry
p4835
aVupgrade
p4836
aVthe short
p4837
aVgreater
p4838
aVcontrols
p4839
aVno matter
p4840
aVal
p4841
aVmuch as
p4842
aVdeveloped
p4843
aVdeveloper
p4844
aVnetworks
p4845
aVfor each
p4846
aVof both
p4847
aVthe funding
p4848
aVwww youtube com
p4849
aVselect
p4850
aVmonthly
p4851
aVis always
p4852
aVlovely
p4853
aVstate of
p4854
aVwith their
p4855
aVto create the
p4856
aVand get
p4857
aVon our website
p4858
aVit we
p4859
aVyear
p4860
aVmore the
p4861
aVsome of
p4862
aVyou can
p4863
aVeveryone who
p4864
aVlabel
p4865
aVthe ultimate
p4866
aVand take
p4867
aVplatform
p4868
aVsolo
p4869
aVsold
p4870
aVhow much
p4871
aVsuperior
p4872
aVin and
p4873
aVthe cast
p4874
aVthe case
p4875
aVfood and
p4876
aVmaybe
p4877
aVfate
p4878
aVmechanics
p4879
aVgive
p4880
aVhelp in
p4881
aVmillions
p4882
aVon
p4883
aVok
p4884
aVoz
p4885
aVor
p4886
aVop
p4887
aVwoman
p4888
aVto teach
p4889
aVfor taking the
p4890
aVplanning
p4891
aVour funding
p4892
aVif we
p4893
aVone of kind
p4894
aVare offering
p4895
aVjust to
p4896
aVthe second
p4897
aVset to
p4898
aVcome to
p4899
aVthe original
p4900
aVpost production
p4901
aVand many
p4902
aVyou from
p4903
aVtold
p4904
aVtoronto
p4905
aVmore about
p4906
aVassistance
p4907
aVmentioned
p4908
aValways been
p4909
aVhow do
p4910
aViron
p4911
aVup with the
p4912
aVthe creation of
p4913
aVthe dark
p4914
aVmetal
p4915
aVshipping
p4916
aVtherefore
p4917
aVthat are
p4918
aVintended
p4919
aVproud of
p4920
aVelectronic
p4921
aVour lives
p4922
aVhome
p4923
aVand art
p4924
aVto grow
p4925
aVyou are
p4926
aVbrief
p4927
aVopening
p4928
aVrpg
p4929
aVunique
p4930
aVas well as
p4931
aVfor us to
p4932
aVrather
p4933
aVcomes
p4934
aVmoved
p4935
aVmoves
p4936
aVfamous
p4937
aVof you
p4938
aVto draw
p4939
aVyou re
p4940
aVaffect
p4941
aVschool and
p4942
aVjoin the
p4943
aVcreators
p4944
aVlenses
p4945
aVmodel
p4946
aVthe event
p4947
aVbe able
p4948
aVpocket
p4949
aVbe part of
p4950
aVgoogle
p4951
aVinto your
p4952
aVwill add
p4953
aVhighly
p4954
aVconditions
p4955
aVgoals
p4956
aVunlock
p4957
aVpuzzles
p4958
aVknows
p4959
aVworkers
p4960
aVquality of
p4961
aVbe put
p4962
aVhere are
p4963
aVcombine
p4964
aVraspberry
p4965
aVprincess
p4966
aVabout what
p4967
aVif your
p4968
aVand this is
p4969
aVthem
p4970
aVproviding
p4971
aVdancing
p4972
aVmore of
p4973
aVcinema
p4974
aVbringing
p4975
aVturned
p4976
aVas long
p4977
aVso they
p4978
aVcolours
p4979
aVthe four
p4980
aVexist
p4981
aVgirls
p4982
aVhere are some
p4983
aVexpect
p4984
aVproducts
p4985
aVwe wanted to
p4986
aVisn
p4987
aVdesigner
p4988
aVdesigned
p4989
aVpart of the
p4990
aVwe like to
p4991
aVexamples
p4992
aVabout this
p4993
aVholding
p4994
aVtexas
p4995
aVhowever we
p4996
aVto turn
p4997
aVextremely
p4998
aVon twitter
p4999
aVwilling
p5000
aVcompleted
p5001
aVwork has
p5002
aVlove the
p5003
aVand give
p5004
aVour rewards
p5005
aVplants
p5006
aVis designed to
p5007
aVproject that
p5008
aVprefer
p5009
aVart for
p5010
aVwe got
p5011
aVallow for
p5012
aVrewards for
p5013
aVall that
p5014
aVbegan
p5015
aVrule
p5016
aVeven more
p5017
aVraw
p5018
aVray
p5019
aVto choose
p5020
aVthroughout the
p5021
aVinvestment
p5022
aVexperience
p5023
aVjohn
p5024
aVthat she
p5025
aVpledged
p5026
aVhouses
p5027
aVany of the
p5028
aVunexpected
p5029
aVwhile the
p5030
aVbusinesses
p5031
aVdevelopment
p5032
aVcontent play
p5033
aVdespite
p5034
aVand easy
p5035
aVweight
p5036
aVonce we
p5037
aVmilitary
p5038
aVused for
p5039
aVkeep your
p5040
aVkeep
p5041
aVpure
p5042
aVreading
p5043
aVafter all
p5044
aVthe course
p5045
aVadvantage
p5046
aVto other
p5047
aVthe same time
p5048
aVgoing to be
p5049
aVwill be sent
p5050
aVput the
p5051
aVband
p5052
aVbank
p5053
aVforms
p5054
aVanywhere
p5055
aVnovels
p5056
aVan original
p5057
aVit would
p5058
aVfuture
p5059
aVto pay
p5060
aVfish
p5061
aVhelps
p5062
aVgames
p5063
aVgamer
p5064
aVglass
p5065
aVare you
p5066
aVinvolved
p5067
aVthe life
p5068
aVgender
p5069
aVof each
p5070
aVlovers
p5071
aVimprovements
p5072
aVyour support and
p5073
aVjune
p5074
aVminiatures
p5075
aVseriously
p5076
aVincentives
p5077
aVcame up with
p5078
aVsubjects
p5079
aVdecide
p5080
aVuniversity
p5081
aVbegins
p5082
aVan example of
p5083
aVwith other
p5084
aVremain
p5085
aVto be the
p5086
aVholds
p5087
aVreaches
p5088
aVreached
p5089
aVthis goal
p5090
aVadded to the
p5091
aVto it
p5092
aVin the game
p5093
aVfilmmaker
p5094
aVofficial
p5095
aVby an
p5096
aVventure
p5097
aVhave your
p5098
aVmaking
p5099
aVwant to see
p5100
aVown
p5101
aVseries
p5102
aVgoals we
p5103
aVenable
p5104
aVcustomized
p5105
aVensure that
p5106
aVmonth
p5107
aVincrease
p5108
aVthe funds
p5109
aVadds
p5110
aVleads
p5111
aVchristmas
p5112
aVideas
p5113
aVideal
p5114
aVwe hope to
p5115
aVpassionate about
p5116
aVprojects
p5117
aVthat you can
p5118
aVdance
p5119
aVexternal
p5120
aVmission is
p5121
aVsalad
p5122
aVthe wall
p5123
aVcopies
p5124
aVthey do
p5125
aVwhich are
p5126
aVrange of
p5127
aVcompletion of
p5128
aVare looking
p5129
aVcan have
p5130
aVaspects of
p5131
aVprovide
p5132
aVthe character
p5133
aVbluetooth
p5134
aVlibrary
p5135
aVdraw
p5136
aVback to
p5137
aVworld is
p5138
aVworld in
p5139
aVdecision
p5140
aVque
p5141
aVpilot
p5142
aVbe to
p5143
aVbought
p5144
aVwe have to
p5145
aVwith your
p5146
aVfigures
p5147
aVthe
p5148
aVwould have
p5149
aVthe building
p5150
aVto create
p5151
aVsmartphone
p5152
aVinspire
p5153
aVthis will
p5154
aVentry
p5155
aVshipping costs
p5156
aVthis kickstarter campaign
p5157
aVhe also
p5158
aVget in
p5159
aVget it
p5160
aVtruly
p5161
aVitalian
p5162
aVpromoting
p5163
aVyou for your
p5164
aVmaterial
p5165
aVstories and
p5166
aVand feel
p5167
aVjames
p5168
aVconnections
p5169
aVbible
p5170
aVwhite
p5171
aVallows
p5172
aVgas
p5173
aVdetails
p5174
aVblack and
p5175
aVtowards
p5176
aVis about
p5177
aVsure to
p5178
aVselection of
p5179
aVuse of
p5180
aVcase
p5181
aVcash
p5182
aVcast
p5183
aVcharge
p5184
aVsend you
p5185
aVmight be
p5186
aVmiddle of
p5187
aVif you don
p5188
aVwill continue to
p5189
aVwe are going
p5190
aVopened
p5191
aVfinish
p5192
aVand new
p5193
aVinstead of
p5194
aVdeluxe
p5195
aVnational
p5196
aVmany years
p5197
aVart by
p5198
aVtwo years
p5199
aVdecade
p5200
aVjapan
p5201
aVthose that
p5202
aVadult
p5203
aVsensor
p5204
aVfilm festival
p5205
aVclick here
p5206
aVspecific
p5207
aVcampaign and
p5208
aVwashington
p5209
aVthe director
p5210
aVunit
p5211
aVthings that
p5212
aVsalt
p5213
aVon to
p5214
aVand hopefully
p5215
aVthe age
p5216
aVto cover the
p5217
aVblock
p5218
aVyears of
p5219
aVmary
p5220
aVresponse
p5221
aVcommunity of
p5222
aVknow it
p5223
aVmouth
p5224
aVshirts
p5225
aVbut that
p5226
aVmethods
p5227
aVare we
p5228
aVyou for
p5229
aVcommitted
p5230
aVeconomic
p5231
aVwhere we
p5232
aVinvite
p5233
aVletter
p5234
aVis as
p5235
aVis an
p5236
aVbackers will
p5237
aVentirely
p5238
aVeven though
p5239
aVone of these
p5240
aVto stop
p5241
aVphilosophy
p5242
aVto the next
p5243
aVwriters
p5244
aVwhen was
p5245
aVand see
p5246
aVthis means
p5247
aVto learn
p5248
aVnumbers
p5249
aVproperly
p5250
aVvast
p5251
aVnumber of
p5252
aVorders
p5253
aVupcoming
p5254
aVwith an
p5255
aVit is the
p5256
aVactivities
p5257
aVquick
p5258
aVas one
p5259
aVmobile
p5260
aVwhatever
p5261
aVhistory of
p5262
aVsome
p5263
aVquality
p5264
aVlyrics
p5265
aVmore information
p5266
aVthe card
p5267
aVnormal
p5268
aVability to
p5269
aVphotographs
p5270
aVphotography
p5271
aVsupport the
p5272
aVhearts
p5273
aVon facebook
p5274
aVabove
p5275
aVgoal is
p5276
aVinteract
p5277
aVmy goal
p5278
aVhad
p5279
aVhas
p5280
aVhat
p5281
aVmachines
p5282
aVask
p5283
aVtoward
p5284
aV200
p5285
aVcreate your
p5286
aVdecisions
p5287
aVsell
p5288
aVhave created
p5289
aVcover
p5290
aVwallpaper
p5291
aVflash
p5292
aVover the world
p5293
aVreach our goal
p5294
aVthe band
p5295
aVcome from
p5296
aVpoetry
p5297
aVcome up
p5298
aVus on
p5299
aVhelping us
p5300
aVcheck out
p5301
aV50
p5302
aVinstead
p5303
aVallows us to
p5304
aVtool
p5305
aVtook
p5306
aVas we
p5307
aVmiami
p5308
aVmember
p5309
aVprevious
p5310
aVper
p5311
aVsites
p5312
aVabout our
p5313
aVproject to
p5314
aVissue
p5315
aVit could
p5316
aVand sound
p5317
aVmaking it
p5318
aV60
p5319
aVfor people
p5320
aVwrong
p5321
aVways to
p5322
aVfrom the
p5323
aVblack and white
p5324
aVhole
p5325
aVhold
p5326
aVconvention
p5327
aVto hold
p5328
aVthis film
p5329
aVfriends and family
p5330
aVout and
p5331
aVpour
p5332
aVdeeper
p5333
aVrelationships
p5334
aVdesigned to
p5335
aVgame with
p5336
aVbecomes
p5337
aVchildren
p5338
aVlonger
p5339
aVyou just
p5340
aVwill come
p5341
aVculture
p5342
aVrole of
p5343
aVfantastic
p5344
aVon the right
p5345
aVto ensure
p5346
aVgroup
p5347
aVgo to
p5348
aVbeginning
p5349
aVidea of
p5350
aVcomputer
p5351
aVmoon
p5352
aVinvited
p5353
aVtokens
p5354
aVlate
p5355
aVclubs
p5356
aVfeature
p5357
aVbio
p5358
aVgovernment
p5359
aVthe city
p5360
aVboxes
p5361
aVbecoming
p5362
aVfamily
p5363
aVauthors
p5364
aVexecutive
p5365
aVfriends
p5366
aVbe in
p5367
aVattempt
p5368
aVpersonally
p5369
aVpotential
p5370
aVeach other
p5371
aVcustomers
p5372
aVthe book and
p5373
aVthat where
p5374
aVthe process of
p5375
aVtogether we
p5376
aVus know
p5377
aVmake your
p5378
aVthe form
p5379
aVpowers
p5380
aVto check
p5381
aVaccording to
p5382
aVportion
p5383
aV30 000
p5384
aVfrench
p5385
aVparticular
p5386
aVipad
p5387
aVcan create
p5388
aVmaster
p5389
aVthe necessary
p5390
aVbrew
p5391
aVdevelop
p5392
aVbased in
p5393
aVin love with
p5394
aVyours
p5395
aVacts
p5396
aVpostcards
p5397
aVcustomize
p5398
aVthe great
p5399
aVmachine
p5400
aVyou pledge
p5401
aVand my
p5402
aVmarch
p5403
aVsizes
p5404
aVsized
p5405
aVproduct and
p5406
aVkiller
p5407
aVcosts and
p5408
aVuniverse
p5409
aVhost
p5410
aVraised will
p5411
aVrecordings
p5412
aVreduce
p5413
aVof our
p5414
aVhelp
p5415
aVheld
p5416
aVhell
p5417
aVwin
p5418
aVprice of
p5419
aVsuch as the
p5420
aVyou would like
p5421
aVcouldn
p5422
aVnew york
p5423
aVstate
p5424
aVbones
p5425
aVas they
p5426
aVto use
p5427
aVrobot
p5428
aVorder to
p5429
aVare going to
p5430
aVthe journey
p5431
aVmusic video
p5432
aVpurple
p5433
aVnorth
p5434
aVfoods
p5435
aVbefore
p5436
aVimages
p5437
aVwhere the
p5438
aVlegend
p5439
aVdemand
p5440
aVprize
p5441
aVdevelopers
p5442
aVinto this
p5443
aVfire
p5444
aVreceiving
p5445
aVcollection of
p5446
aVthe making
p5447
aVthemselves
p5448
aVmy project
p5449
aVwe will have
p5450
aVhas already
p5451
aVaddition to
p5452
aVfor the last
p5453
aVour game
p5454
aVevents and
p5455
aVnot included
p5456
aVyou may
p5457
aVof things
p5458
aVhow we
p5459
aVyour own
p5460
aVdesign for
p5461
aVolder
p5462
aVbring this
p5463
aVpicked
p5464
aVtalk about
p5465
aVhis work
p5466
aVexercise
p5467
aVlove it
p5468
aVfarmers
p5469
aVit easy
p5470
aVpromote
p5471
aVsmith
p5472
aVstretch goals
p5473
aVwire
p5474
aVall we
p5475
aVwill never
p5476
aVfor you
p5477
aVve been
p5478
aVtrained
p5479
aVedition of
p5480
aVjapanese
p5481
aVmile
p5482
aVextensive
p5483
aVloved
p5484
aVloves
p5485
aVare going
p5486
aVthousands
p5487
aVplate
p5488
aVbottom
p5489
aVinsight
p5490
aVclient
p5491
aVthe usa
p5492
aVthe use
p5493
aVwe would like
p5494
aVwill also
p5495
aVlong time
p5496
aVking
p5497
aVkind
p5498
aVcom and
p5499
aVyou who
p5500
aVso much for
p5501
aVto do the
p5502
aVmoments
p5503
aVgenerosity
p5504
aVone of my
p5505
aVwritten
p5506
aVto show
p5507
aVlanguage
p5508
aVexcited
p5509
aVat home
p5510
aVyou get the
p5511
aVold
p5512
aVadvance
p5513
aVfitness
p5514
aVthe project
p5515
aVwall
p5516
aVwalk
p5517
aVcreator
p5518
aVthough
p5519
aVtickets
p5520
aVready to
p5521
aVthe united states
p5522
aVin real
p5523
aVof the new
p5524
aVtim
p5525
aVsessions
p5526
aVwe want
p5527
aVwe re
p5528
aVto release
p5529
aVamerica
p5530
aVto go to
p5531
aVfeels
p5532
aVpictures
p5533
aVas much
p5534
aVthe need
p5535
aVaverage
p5536
aVout of
p5537
aVdon know
p5538
aVthe country
p5539
aVweek
p5540
aVpiece of
p5541
aVfor
p5542
aVfox
p5543
aVkeeping
p5544
aVour facebook
p5545
aVrecent
p5546
aVpromotion
p5547
aVjersey
p5548
aVmedical
p5549
aVrecently
p5550
aVre
p5551
aVlarge
p5552
aVgraphic design
p5553
aVstraight
p5554
aVcommunity and
p5555
aVdisplayed
p5556
aVthe local
p5557
aVstories of
p5558
aVshield
p5559
aVmatching
p5560
aVpublic
p5561
aVplace
p5562
aVsci
p5563
aVeurope
p5564
aVnetwork
p5565
aVand two
p5566
aVin its
p5567
aVcome with
p5568
aVand every
p5569
aVcats
p5570
aVtime you
p5571
aVwith your help
p5572
aVmanner
p5573
aVothers
p5574
aVsets
p5575
aVto pay for
p5576
aVand most
p5577
aVway that
p5578
aVlearn
p5579
aVhere on
p5580
aVto watch
p5581
aVtell the
p5582
aVresistant
p5583
aVfor this project
p5584
aVhope you
p5585
aVdirect
p5586
aVvariety
p5587
aVthe size
p5588
aVwith one
p5589
aVelse
p5590
aVyou need
p5591
aVsame
p5592
aVconvenient
p5593
aVpay for
p5594
aVat the
p5595
aVbuy
p5596
aVbut
p5597
aVleaders
p5598
aVprotect
p5599
aVyou our
p5600
aVdesign is
p5601
aVmask
p5602
aVmass
p5603
aVto give
p5604
aVof her
p5605
aVcards and
p5606
aVbook to
p5607
aVus and
p5608
aVtrue
p5609
aVjeff
p5610
aVthe book will
p5611
aVon her
p5612
aVwe have been
p5613
aVplug
p5614
aVthe years
p5615
aVthe love
p5616
aVcollege
p5617
aVas the
p5618
aVcrew
p5619
aVreward level
p5620
aVinput
p5621
aVspending
p5622
aVmay be
p5623
aVit is
p5624
aVbenefit
p5625
aVour friends
p5626
aVwish to
p5627
aVsome of our
p5628
aVyou help
p5629
aVthe middle
p5630
aVwe see
p5631
aVthe production of
p5632
aVbecause the
p5633
aVto its
p5634
aVinterest
p5635
aVsteve
p5636
aVadam
p5637
aVdinner
p5638
aVthe way
p5639
aVvary
p5640
aVprevent
p5641
aVthe other
p5642
aVattempt to
p5643
aVinformation
p5644
aVlee
p5645
aVles
p5646
aVit up
p5647
aVlady
p5648
aVcoverage
p5649
aVcollector
p5650
aVthousands of
p5651
aVrecipe
p5652
aVprovided
p5653
aVprovides
p5654
aVwill the
p5655
aVbatch
p5656
aVsort
p5657
aVleft to
p5658
aVsquare
p5659
aVlog
p5660
aVhave already
p5661
aVlos
p5662
aVlot
p5663
aVavailable for
p5664
aVwriting and
p5665
aVstruggle
p5666
aVseen
p5667
aVseem
p5668
aVseek
p5669
aVto develop
p5670
aVseen in
p5671
aVmid
p5672
aVmix
p5673
aVbeing able
p5674
aVof the game
p5675
aVpurchase the
p5676
aVimagine
p5677
aVeveryone to
p5678
aVor not
p5679
aVresistance
p5680
aVbound
p5681
aVlife of
p5682
aVset
p5683
aVwatching
p5684
aVthe artwork
p5685
aVtools
p5686
aVless
p5687
aVthinking
p5688
aVevent
p5689
aVartists
p5690
aVthis includes
p5691
aVregarding
p5692
aVshare
p5693
aVcan only
p5694
aVthat they
p5695
aVmotor
p5696
aVgameplay
p5697
aVwithout the
p5698
aVscott
p5699
aVchildren and
p5700
aVallow me
p5701
aVtons
p5702
aVlocations
p5703
aVknowledge
p5704
aVinclude
p5705
aVmore you
p5706
aVas your
p5707
aVclay
p5708
aVthe world of
p5709
aVto keep the
p5710
aVthe next level
p5711
aVcomics
p5712
aVtype of
p5713
aVset of
p5714
aVguys
p5715
aVand some
p5716
aVdurable
p5717
aVproject
p5718
aVyou so much
p5719
aVthe rest
p5720
aVthe team
p5721
aVguest
p5722
aVaustralia
p5723
aVgoal is to
p5724
aVyou to
p5725
aVperforming
p5726
aVpatent pending
p5727
aVwhether you
p5728
aVsavings
p5729
aVname
p5730
aVthis is the
p5731
aVgoal
p5732
aVtake it
p5733
aVreally
p5734
aVpowered
p5735
aVbonus
p5736
aVedge
p5737
aVall you
p5738
aVinspired by the
p5739
aVthe book
p5740
aVbenefits
p5741
aVone of
p5742
aVexclusive
p5743
aVmade
p5744
aVhas the
p5745
aVsinger
p5746
aVbeing the
p5747
aVcomplete the
p5748
aVlast
p5749
aVis the
p5750
aVcoins
p5751
aVto create an
p5752
aVof any
p5753
aVfor us
p5754
aVmark
p5755
aVepisode
p5756
aVdesign and
p5757
aVour backers
p5758
aVus make
p5759
aVis just
p5760
aVpixel
p5761
aVdream of
p5762
aVcounty
p5763
aVship
p5764
aVtogether to
p5765
aVsignificant
p5766
aVwell known
p5767
aVproject with
p5768
aVcontact
p5769
aV1000
p5770
aVback to the
p5771
aVmusician
p5772
aVin his
p5773
aVbeing able to
p5774
aVposter
p5775
aVcontains
p5776
aVgraphic
p5777
aVhands
p5778
aVconfident
p5779
aVthose of you
p5780
aVthis point
p5781
aVto have the
p5782
aVtough
p5783
aVflorida
p5784
aVpurchasing
p5785
aVof the most
p5786
aVmuseum
p5787
aVarmy
p5788
aVkey
p5789
aVpuzzle
p5790
aVplaying
p5791
aVmembers
p5792
aVof one of
p5793
aVor just
p5794
aVthese will
p5795
aVcorporate
p5796
aVthe material
p5797
aVsee the
p5798
aVmakes
p5799
aVmaker
p5800
aVoff
p5801
aVwe know
p5802
aVkitchen
p5803
aVthrough kickstarter
p5804
aVpersonal
p5805
aVflip
p5806
aVfiction
p5807
aVwhy
p5808
aVwant it
p5809
aVeach of the
p5810
aVcomments
p5811
aVwalls
p5812
aVareas
p5813
aVyou like
p5814
aVpledge amount
p5815
aValong with
p5816
aVto say
p5817
aVto not
p5818
aVand will be
p5819
aVour stretch
p5820
aVsale
p5821
aVin new york
p5822
aV3rd
p5823
aVreport
p5824
aVinnovation
p5825
aVgets
p5826
aVpossibilities
p5827
aVspare
p5828
aVcontinues
p5829
aVgreat
p5830
aVover the last
p5831
aVhad to
p5832
aVis still
p5833
aVglobe
p5834
aVminds
p5835
aVreasons
p5836
aVday and
p5837
aVoffering
p5838
aVyou have any
p5839
aVsouth
p5840
aVworld the
p5841
aVget you
p5842
aVto work with
p5843
aVthe music
p5844
aVand even
p5845
aVpremiere
p5846
aVmade for
p5847
aVthe development of
p5848
aVwants
p5849
aVasking for
p5850
aVlength
p5851
aVneed to be
p5852
aVagain
p5853
aVthe costs
p5854
aVsure
p5855
aVhow to
p5856
aVfor more information
p5857
aVhundreds of
p5858
aVground
p5859
aVnet
p5860
aVfelt
p5861
aVfell
p5862
aVwill go
p5863
aVwish
p5864
aVthis project
p5865
aVtheme
p5866
aVput in
p5867
aVput it
p5868
aVthe majority of
p5869
aVmonths
p5870
aVdream
p5871
aVexactly what
p5872
aVof kind
p5873
aVinteraction
p5874
aVand have
p5875
aVsome time
p5876
aVcoach
p5877
aVfor their
p5878
aVbeen working
p5879
aVwe believe
p5880
aVare many
p5881
aVand at
p5882
aVof this
p5883
aVgame that
p5884
aVfree
p5885
aVpair of
p5886
aVand it is
p5887
aVlook and
p5888
aVsearching
p5889
aVcontributions
p5890
aVgenerations
p5891
aVdesigning
p5892
aVwe had
p5893
aVbudget
p5894
aVparents
p5895
aVwill find
p5896
aVin both
p5897
aVcome up with
p5898
aVcan take
p5899
aVzero
p5900
aVchart
p5901
aVfinal product
p5902
aVdays
p5903
aVwith some
p5904
aVthen you
p5905
aVpanels
p5906
aVexperience of
p5907
aVif the
p5908
aVkept
p5909
aVlive
p5910
aVfacebook and
p5911
aVben
p5912
aVbed
p5913
aVapproximately
p5914
aVbill
p5915
aVfrank
p5916
aVthere is no
p5917
aVparts
p5918
aVpresentation
p5919
aVwith many
p5920
aVand don
p5921
aVnot
p5922
aVtree
p5923
aVcopy of
p5924
aVfeedback
p5925
aV3000
p5926
aVfind the
p5927
aVto see this
p5928
aVto fund the
p5929
aVand if you
p5930
aVjournal
p5931
aVregular
p5932
aVhuman
p5933
aVhealthy
p5934
aVto do it
p5935
aVresult
p5936
aVsee what
p5937
aVeven if
p5938
aVin our
p5939
aVthat you will
p5940
aVget this
p5941
aVyou should
p5942
aVcareer
p5943
aVyear and
p5944
aVfly
p5945
aVare ready to
p5946
aVmuch of
p5947
aVto reach
p5948
aVto each
p5949
aVdriver
p5950
aVdriven
p5951
aVover time
p5952
aVhave access to
p5953
aVand how
p5954
aVcovered
p5955
aVyears
p5956
aVto this
p5957
aVdocumentary
p5958
aVmaximum
p5959
aVcontribution
p5960
aVinteresting
p5961
aVdedicated to
p5962
aVwill include
p5963
aVjohnson
p5964
aVlist
p5965
aVthat we can
p5966
aVwhich can
p5967
aVpainting
p5968
aVmeans
p5969
aVherself
p5970
aV120
p5971
aVaware
p5972
aVthank you for
p5973
aVweapon
p5974
aVtemperature
p5975
aVto set
p5976
aVto send
p5977
aVconnect with
p5978
aVus get
p5979
aVand more
p5980
aVsource
p5981
aVit the
p5982
aVleast
p5983
aVplease help us
p5984
aVadd
p5985
aVnext step
p5986
aV99
p5987
aV90
p5988
aVinformation about
p5989
aVsticker
p5990
aVmarketing
p5991
aVve already
p5992
aVheroes
p5993
aVto cover
p5994
aVyears old
p5995
aVeasily
p5996
aVsupport will
p5997
aVcasting
p5998
aVwill need
p5999
aVpassion
p6000
aVthe air
p6001
aVthat why
p6002
aVthis time
p6003
aVwood
p6004
aVmusic for
p6005
aVand keep
p6006
aVeasy to
p6007
aVmaps
p6008
aVgame the
p6009
aVhe is
p6010
aVwe want to
p6011
aVenough for
p6012
aVhelp and
p6013
aVare made
p6014
aVmeaning
p6015
aVdamage
p6016
aVsensors
p6017
aVin different
p6018
aVwinter
p6019
aVspread the
p6020
aVcommunity
p6021
aVthey want
p6022
aVoutside the
p6023
aVfor our
p6024
aVsurvivors
p6025
aVworked
p6026
aVyou do
p6027
aVon our
p6028
aVand share
p6029
aVlatest
p6030
aVhave it
p6031
aVknow that
p6032
aVor to
p6033
aVbrewery
p6034
aVthe game is
p6035
aVtime we
p6036
aVhotel
p6037
aVfor taking
p6038
aVonline
p6039
aVat the end
p6040
aVthe potential
p6041
aVsolid
p6042
aVthought
p6043
aVbut in
p6044
aVthis one
p6045
aVlack
p6046
aVnyc
p6047
aVjoin us
p6048
aVprofessional
p6049
aVto look
p6050
aVnext to
p6051
aVaway
p6052
aVsure you
p6053
aVspecies
p6054
aVlittle bit
p6055
aValongside
p6056
aVdurability
p6057
aVawareness
p6058
aVyour time
p6059
aVsupplies
p6060
aValex
p6061
aVfeaturing
p6062
aVbe available
p6063
aVto wear
p6064
aVfair
p6065
aVof cards
p6066
aVcan be used
p6067
aVlocated
p6068
aVwallet
p6069
aVgrowing
p6070
aVknow what
p6071
aVthe power
p6072
aVsupported
p6073
aVto add
p6074
aVdistribution
p6075
aVexperience and
p6076
aVwe found
p6077
aVcapture
p6078
aVthe creative
p6079
aVit this
p6080
aVboys
p6081
aVhappened
p6082
aVand beyond
p6083
aVeven if you
p6084
aVpresent
p6085
aVin other
p6086
aVare available
p6087
aVraise the
p6088
aVthe university
p6089
aVwhenever
p6090
aVbe sent
p6091
aVmoney raised
p6092
aVlittle
p6093
aVtake the
p6094
aVeither
p6095
aVmultiple
p6096
aVpower of
p6097
aVfunds will be
p6098
aVof this project
p6099
aVwhere your
p6100
aVto take
p6101
aVbrain
p6102
aVjump
p6103
aVmoved to
p6104
aVup for
p6105
aVthe world and
p6106
aVportland
p6107
aVjust the
p6108
aVwhat the
p6109
aVforward to
p6110
aVis to
p6111
aVyou we
p6112
aVanti
p6113
aVresults
p6114
aVbeen able
p6115
aVworked with
p6116
aVmake my
p6117
aVappeared
p6118
aVdrawings
p6119
aVcreativity
p6120
aVof the world
p6121
aVconsidered
p6122
aVto the world
p6123
aVpackaging
p6124
aVif you want
p6125
aVson
p6126
aVyour donation
p6127
aVslim
p6128
aVmany other
p6129
aVartists and
p6130
aVpack
p6131
aVlink to
p6132
aVvery own
p6133
aVnot only
p6134
aVsomewhere
p6135
aVthe majority
p6136
aVangle
p6137
aVplayed
p6138
aVplayer
p6139
aVsurvive
p6140
aVrolling
p6141
aValone
p6142
aValong
p6143
aVlocally
p6144
aVused to
p6145
aVyou must
p6146
aVto inspire
p6147
aVto know
p6148
aVbe on
p6149
aVcapable browser to
p6150
aVemotional
p6151
aVpeople of
p6152
aVre going
p6153
aVon what
p6154
aVbecause of
p6155
aVby the end
p6156
aVwill send
p6157
aVcard game
p6158
aVwelcome to
p6159
aVinformation on
p6160
aVsweet
p6161
aVfamily and
p6162
aVpossible
p6163
aVpossibly
p6164
aVimportance
p6165
aVgo
p6166
aVthis would
p6167
aVaims to
p6168
aVbest of
p6169
aVwould love to
p6170
aVand all the
p6171
aVthe production
p6172
aVin los
p6173
aVcoast
p6174
aVroles
p6175
aVthe amazing
p6176
aVprinting
p6177
aVso we
p6178
aVdesigns
p6179
aVbegan to
p6180
aVand marketing
p6181
aVdrinks
p6182
aVbiggest
p6183
aVvintage
p6184
aVrepresents
p6185
aVon the back
p6186
aVfor all of
p6187
aVhuge
p6188
aVbehind the scenes
p6189
aVis set
p6190
aVmany people
p6191
aVregardless
p6192
aVcapable
p6193
aVimpossible
p6194
aVservices
p6195
aVis what
p6196
aVallowing
p6197
aVlife
p6198
aVinvested
p6199
aVveterans
p6200
aVcurrent
p6201
aVestablished
p6202
aVfuel
p6203
aVin many
p6204
aVtell
p6205
aVaudience
p6206
aVof time
p6207
aVend
p6208
aVover and
p6209
aVrequirements
p6210
aVproducers
p6211
aVbigger
p6212
aVmen
p6213
aVorange
p6214
aVbut to
p6215
aVengineering
p6216
aVof years
p6217
aVup
p6218
aVus
p6219
aVun
p6220
aVuk
p6221
aVfits
p6222
aVmechanical
p6223
aVprints
p6224
aVof life
p6225
aVlevel you
p6226
aVto read
p6227
aVeric
p6228
aVwarrior
p6229
aVongoing
p6230
aVlink
p6231
aVplace for
p6232
aVline
p6233
aVvampire
p6234
aVrewards and
p6235
aVrichard
p6236
aVpublishing
p6237
aVwhat is
p6238
aVdevice
p6239
aVincluded in
p6240
aVmembership
p6241
aVthe first to
p6242
aVoperations
p6243
aVsee how
p6244
aVpremium
p6245
aVdesert
p6246
aVchance to
p6247
aVit also
p6248
aVkickstarter exclusive
p6249
aVsamples
p6250
aVfancy
p6251
aVenglish
p6252
aVrecipes
p6253
aVthe environment
p6254
aVproduct
p6255
aVproduce
p6256
aVto your
p6257
aVhorse
p6258
aVspray
p6259
aVto change
p6260
aVentertaining
p6261
aVshare the
p6262
aVtraditional
p6263
aVgame and
p6264
aVblade
p6265
aVthousand
p6266
aVlife and
p6267
aVdown to
p6268
aVbay
p6269
aVour initial
p6270
aVflexible
p6271
aVto her
p6272
aVtalented
p6273
aVthe site
p6274
aVunable
p6275
aVshots
p6276
aVve had
p6277
aVart
p6278
aVarm
p6279
aVoptions
p6280
aVafter the
p6281
aVthe number of
p6282
aVlives in
p6283
aVpackage
p6284
aVnow have
p6285
aVonly the
p6286
aVour own
p6287
aVgame
p6288
aVperfectly
p6289
aVimportant
p6290
aVand they
p6291
aVand then
p6292
aVimdb
p6293
aVfrom my
p6294
aVbrooklyn
p6295
aVin addition
p6296
aVbutton
p6297
aVthe device
p6298
aVyou don have
p6299
aVchoose
p6300
aVcatch
p6301
aVchicken
p6302
aVfilm is
p6303
aVmotion
p6304
aVcan add
p6305
aVin the usa
p6306
aVwant
p6307
aVthe three
p6308
aVinstalled
p6309
aVframe
p6310
aVtest
p6311
aVthe pledge
p6312
aVwith her
p6313
aVanything
p6314
aVunited states
p6315
aVwhere it
p6316
aVthe fact
p6317
aVduring the
p6318
aValso get
p6319
aVvery
p6320
aVlikes
p6321
aVchoose from
p6322
aVthe rest of
p6323
aVstarted to
p6324
aVallows you to
p6325
aVfilmmakers
p6326
aVso if you
p6327
aVget to
p6328
aVplanned
p6329
aVknight
p6330
aVdown
p6331
aVgame play
p6332
aVjustice
p6333
aVfunding will
p6334
aVarchitecture
p6335
aVcm
p6336
aVprogram
p6337
aVbamboo
p6338
aVdown the
p6339
aVmiss
p6340
aVmore and
p6341
aVoverall
p6342
aVchannel
p6343
aVthem in
p6344
aVmention
p6345
aVnew and
p6346
aVall over
p6347
aVcapacity
p6348
aVordering
p6349
aVpatterns
p6350
aVdynamic
p6351
aVthey will
p6352
aVend up
p6353
aVknow you
p6354
aVthat can
p6355
aVleaving
p6356
aVyour choice
p6357
aVgreat for
p6358
aVbe
p6359
aVby
p6360
aVan all
p6361
aVwife
p6362
aVand can
p6363
aVcan you
p6364
aVlove and
p6365
aVpin
p6366
aVsecret
p6367
aVand want
p6368
aVbands
p6369
aVlocal
p6370
aVinternal
p6371
aVmagic
p6372
aVworking on
p6373
aVsystem
p6374
aVbikes
p6375
aVweeks
p6376
aVhas also
p6377
aV10
p6378
aV13
p6379
aV12
p6380
aV15
p6381
aV14
p6382
aV17
p6383
aV16
p6384
aV19
p6385
aV18
p6386
aVon it
p6387
aVis why we
p6388
aVversions of
p6389
aVto get to
p6390
aVis unique
p6391
aVrelated
p6392
aVreason
p6393
aVbelow
p6394
aVdigital download
p6395
aVdesign of
p6396
aVfunds will
p6397
aVyou have to
p6398
aVaccess to
p6399
aVthoughts
p6400
aVmore and more
p6401
aVresponsible for
p6402
aVcan do
p6403
a.